BL51 BANKED LINKER/LOCATER V6.22.2.0                                                    03/04/2022  11:08:01  PAGE 1


BL51 BANKED LINKER/LOCATER V6.22.2.0, INVOKED BY:
C:\KEIL_V5\C51\BIN\BL51.EXE .\Objects\main.obj, .\Objects\sys.obj, .\Objects\gpio.obj, .\Objects\timer.obj, .\Objects\ua
>> rt.obj, .\Objects\IAP_flash.obj, .\Objects\spi.obj, .\Objects\ram.obj, .\Objects\ID_Decode.obj, .\Objects\ML7345.obj,
>>  .\Objects\ML7345_HAL.obj TO .\Objects\CRX1831DCM_MA82G5B32_Pro PRINT (.\Listings\CRX1831DCM_MA82G5B32_Pro.m51) RAMSI
>> ZE (256) CODE (0X0000-0X7FFF) XDATA (0X0000-0X06FF)


MEMORY MODEL: SMALL WITH FLOATING POINT ARITHMETIC


INPUT MODULES INCLUDED:
  .\Objects\main.obj (MAIN)
  .\Objects\sys.obj (SYS)
  .\Objects\gpio.obj (GPIO)
  .\Objects\timer.obj (TIMER)
  .\Objects\uart.obj (UART)
  .\Objects\IAP_flash.obj (IAP_FLASH)
  .\Objects\spi.obj (SPI)
  .\Objects\ram.obj (RAM)
  .\Objects\ID_Decode.obj (ID_DECODE)
  .\Objects\ML7345.obj (ML7345)
  .\Objects\ML7345_HAL.obj (ML7345_HAL)
  C:\KEIL_V5\C51\LIB\C51FPS.LIB (?C?FPADD)
  C:\KEIL_V5\C51\LIB\C51FPS.LIB (?C?FPMUL)
  C:\KEIL_V5\C51\LIB\C51FPS.LIB (?C?FPDIV)
  C:\KEIL_V5\C51\LIB\C51FPS.LIB (?C?FCAST)
  C:\KEIL_V5\C51\LIB\C51FPS.LIB (?C?CASTF)
  C:\KEIL_V5\C51\LIB\C51FPS.LIB (?C?FPGETOPN)
  C:\KEIL_V5\C51\LIB\C51S.LIB (?C_STARTUP)
  C:\KEIL_V5\C51\LIB\C51S.LIB (?C?COPY)
  C:\KEIL_V5\C51\LIB\C51S.LIB (?C?CLDPTR)
  C:\KEIL_V5\C51\LIB\C51S.LIB (?C?CLDOPTR)
  C:\KEIL_V5\C51\LIB\C51S.LIB (?C?CSTPTR)
  C:\KEIL_V5\C51\LIB\C51S.LIB (?C?CSTOPTR)
  C:\KEIL_V5\C51\LIB\C51S.LIB (?C?IMUL)
  C:\KEIL_V5\C51\LIB\C51S.LIB (?C?UIDIV)
  C:\KEIL_V5\C51\LIB\C51S.LIB (?C?SIDIV)
  C:\KEIL_V5\C51\LIB\C51S.LIB (?C?ILDIX)
  C:\KEIL_V5\C51\LIB\C51S.LIB (?C?LMUL)
  C:\KEIL_V5\C51\LIB\C51S.LIB (?C?ULDIV)
  C:\KEIL_V5\C51\LIB\C51S.LIB (?C?SLDIV)
  C:\KEIL_V5\C51\LIB\C51S.LIB (?C?LNEG)
  C:\KEIL_V5\C51\LIB\C51S.LIB (?C?ULCMP)
  C:\KEIL_V5\C51\LIB\C51S.LIB (?C?ULSHR)
  C:\KEIL_V5\C51\LIB\C51S.LIB (?C?LSHL)
  C:\KEIL_V5\C51\LIB\C51S.LIB (?C?LLDIDATA)
  C:\KEIL_V5\C51\LIB\C51S.LIB (?C?LLDIDATA0)
  C:\KEIL_V5\C51\LIB\C51S.LIB (?C?LSTIDATA)
  C:\KEIL_V5\C51\LIB\C51S.LIB (?C?LSTXDATA)
  C:\KEIL_V5\C51\LIB\C51S.LIB (?C?LSTKIDATA)
  C:\KEIL_V5\C51\LIB\C51S.LIB (?C?LSTKXDATA)
  C:\KEIL_V5\C51\LIB\C51S.LIB (?C?OFFXADD)
  C:\KEIL_V5\C51\LIB\C51S.LIB (?C?CCASE)
  C:\KEIL_V5\C51\LIB\C51S.LIB (?C_INIT)


LINK MAP OF MODULE:  .\Objects\CRX1831DCM_MA82G5B32_Pro (MAIN)

BL51 BANKED LINKER/LOCATER V6.22.2.0                                                  03/04/2022  11:08:01  PAGE 2



            TYPE    BASE      LENGTH    RELOCATION   SEGMENT NAME
            -----------------------------------------------------

            * * * * * * *   D A T A   M E M O R Y   * * * * * * *
            REG     0000H     0008H     ABSOLUTE     "REG BANK 0"
            DATA    0008H     0010H     UNIT         ?DT?_TX_DATALOAD_HIGHSPEED?ML7345
            DATA    0018H     0007H     UNIT         ?DT?_IAP_WRITEBUF_WITH_PROTECT_VERIFY?IAP_FLASH
            DATA    001FH     0001H     UNIT         ?DT?_DELAYXUS?TIMER
            BIT     0020H.0   0000H.1   UNIT         ?BI?_UART0SENDBYTE?UART
            BIT     0020H.1   0000H.1   UNIT         ?BI?UART
            BIT     0020H.2   0000H.1   UNIT         ?BI?_IAP_WRITEPPAGE?IAP_FLASH
            BIT     0020H.3   0000H.1   UNIT         ?BI?_IAP_ERASEPAGE?IAP_FLASH
            BIT     0020H.4   0000H.1   UNIT         ?BI?_IAP_WRITEBUF_WITH_PROTECT_VERIFY?IAP_FLASH
            BIT     0020H.5   0000H.1   UNIT         ?BI?_IAP_WRITE_BYTE?IAP_FLASH
            BIT     0020H.6   0000H.1   UNIT         ?BI?RAM
                    0020H.7   0000H.1                *** GAP ***
            DATA    0021H     0007H     UNIT         ?DT?_ML7345_FREQUENCY_CALCUL?ML7345_HAL
            DATA    0028H     0005H     UNIT         ?DT?_ML7345_WRITE_FIFO?SPI
            DATA    002DH     0005H     UNIT         ?DT?_ML7345_READ_FIFO?SPI
            DATA    0032H     0005H     UNIT         ?DT?_RF_ML7345_INIT?ML7345
            DATA    0037H     0004H     UNIT         ?DT?_SEND_DATA?UART
            DATA    003BH     0004H     UNIT         ?DT?_ID_SCX1801_EEPROM_WRITE?IAP_FLASH
            DATA    003FH     0004H     UNIT         ?DT?_DELETE_GENERALID_EEPROM?IAP_FLASH
            DATA    0043H     0004H     UNIT         ?DT?_BEEP_MODULE?ID_DECODE
            DATA    0047H     0004H     UNIT         ?DT?_ML7345_FREQUENCY_SET?ML7345_HAL
            DATA    004BH     0004H     UNIT         ?DT?_ML7345_READRX_PACK?ML7345_HAL
            DATA    004FH     0004H     UNIT         ?DT?_ML7345_AUTOTX_DATA?ML7345_HAL
            DATA    0053H     0003H     UNIT         ?DT?_ASC_HEX_2?UART
            DATA    0056H     0003H     UNIT         ?DT?_IAP_WRITE_BYTE?IAP_FLASH
            DATA    0059H     0003H     UNIT         ?DT?ML7345
            DATA    005CH     0002H     UNIT         ?DT?_IAP_WRITEPPAGE?IAP_FLASH
            DATA    005EH     0002H     UNIT         ?DT?_ML7345_WRITE_REG?SPI
            DATA    0060H     0001H     UNIT         ?DT?_DELAY_MS?TIMER
            DATA    0061H     0001H     UNIT         ?DT?_UART0SENDBYTE?UART
            DATA    0062H     0001H     UNIT         ?DT?_ASC_HEX?UART
            DATA    0063H     0001H     UNIT         ?DT?_HEX_ASC?UART
            DATA    0064H     0001H     UNIT         ?DT?_RECEIVEFRAME?UART
            DATA    0065H     0001H     UNIT         ?DT?_IAP_ERASEPAGE?IAP_FLASH
            DATA    0066H     0001H     UNIT         ?DT?_SPI1_SENDRECV_DATA?SPI
            DATA    0067H     0001H     UNIT         ?DT?_ML7345_READ_REG?SPI
            DATA    0068H     0001H     UNIT         ?DT?_SIGNAL_DATA_DECODE?ID_DECODE
            DATA    0069H     0001H     UNIT         ?DT?_RETURN_ID_DATA?ID_DECODE
            DATA    006AH     0001H     UNIT         ?DT?_TX_DATA_TEST?ML7345
            DATA    006BH     0001H     UNIT         ?DT?_ML7345_AUTOSTATETRANSITION_SET?ML7345_HAL
            DATA    006CH     0001H     UNIT         ?DT?_ML7345_SETANDGET_STATE?ML7345_HAL
            DATA    006DH     0001H     UNIT         ?DT?_ML7345_STATEFLAG_CLEAR?ML7345_HAL
            IDATA   006EH     0022H     UNIT         ?ID?RAM
            IDATA   0090H     0011H     UNIT         ?ID?ID_EEPROM_WRITE?IAP_FLASH
            IDATA   00A1H     000FH     UNIT         ?ID?_DELETE_GENERALID_EEPROM?IAP_FLASH
            IDATA   00B0H     000EH     UNIT         ?ID?EEPROM_SYS_LOAD?IAP_FLASH
            IDATA   00BEH     0008H     UNIT         ?ID?_RETURN_ID_DATA?ID_DECODE
            IDATA   00C6H     0007H     UNIT         ?ID?_ID_SCX1801_EEPROM_WRITE?IAP_FLASH
            IDATA   00CDH     0003H     UNIT         ?ID?UART
            IDATA   00D0H     0002H     UNIT         ?ID?TIMER
            IDATA   00D2H     0002H     UNIT         ?ID?ALL_ID_EEPROM_ERASE?IAP_FLASH
            IDATA   00D4H     0002H     UNIT         ?ID?_BEEP_MODULE?ID_DECODE
BL51 BANKED LINKER/LOCATER V6.22.2.0                                                  03/04/2022  11:08:01  PAGE 3


            IDATA   00D6H     0002H     UNIT         ?ID?RECEIVER_BEEP?ID_DECODE
            IDATA   00D8H     0001H     UNIT         ?ID?INT_UART0?UART
            IDATA   00D9H     0001H     UNIT         ?ID?OPRATIONFRAME?UART
            IDATA   00DAH     0001H     UNIT         ?ID?ML7345_TRX_DEL?ML7345
            IDATA   00DBH     0001H     UNIT         ?ID?RF_SYNCWORD_DONE?ML7345_HAL
            IDATA   00DCH     0001H     UNIT         ?STACK

            * * * * * * *  X D A T A   M E M O R Y  * * * * * * *
            XDATA   0000H     03B5H     UNIT         ?XD?RAM
            XDATA   03B5H     0209H     UNIT         ?XD?IAP_FLASH
            XDATA   05BEH     0085H     UNIT         ?XD?ML7345
            XDATA   0643H     007BH     UNIT         ?XD?UART
            XDATA   06BEH     001AH     UNIT         ?XD?ID_DECODE
            XDATA   06D8H     000CH     UNIT         ?XD?ML7345_HAL
            XDATA   06E4H     0003H     UNIT         ?XD?SPI

            * * * * * * *   C O D E   M E M O R Y   * * * * * * *
            CODE    0000H     0003H     ABSOLUTE     
            CODE    0003H     0003H     ABSOLUTE     
            CODE    0006H     0005H     UNIT         ?PR?BEEP_OFF?TIMER
            CODE    000BH     0003H     ABSOLUTE     
            CODE    000EH     0004H     UNIT         ?PR?CLEARWDT?SYS
                    0012H     0001H                  *** GAP ***
            CODE    0013H     0003H     ABSOLUTE     
            CODE    0016H     000CH     UNIT         ?PR?INIT_INT0?GPIO
                    0022H     0001H                  *** GAP ***
            CODE    0023H     0003H     ABSOLUTE     
            CODE    0026H     0B28H     UNIT         ?PR?PC_PRG?UART
            CODE    0B4EH     0AD3H     UNIT         ?PR?ID_DECODE_OUT?ID_DECODE
            CODE    1621H     07A9H     UNIT         ?PR?APP_TX_PACKET?ML7345
            CODE    1DCAH     07A5H     UNIT         ?PR?ID_LEARN?IAP_FLASH
            CODE    256FH     078FH     UNIT         ?C?LIB_CODE
            CODE    2CFEH     05BEH     UNIT         ?PR?ID_DECODE_IDCHECK?ID_DECODE
            CODE    32BCH     05B3H     UNIT         ?C_INITSEG
            CODE    386FH     0564H     UNIT         ?PR?EEPROM_SYS_LOAD?IAP_FLASH
            CODE    3DD3H     04CDH     UNIT         ?PR?_TX_DATALOAD_HIGHSPEED?ML7345
            CODE    42A0H     03CFH     UNIT         ?PR?_RF_ML7345_INIT?ML7345
            CODE    466FH     038FH     UNIT         ?PR?_SIGNAL_DATA_DECODE?ID_DECODE
            CODE    49FEH     032BH     UNIT         ?PR?OPRATIONFRAME?UART
            CODE    4D29H     0312H     UNIT         ?PR?ML7345D_RF_TEST_MODE?ML7345
            CODE    503BH     0282H     UNIT         ?PR?_ML7345_FREQUENCY_CALCUL?ML7345_HAL
            CODE    52BDH     0274H     UNIT         ?PR?ID_EEPROM_WRITE?IAP_FLASH
            CODE    5531H     026EH     UNIT         ?PR?_DELETE_GENERALID_EEPROM?IAP_FLASH
            CODE    579FH     022CH     UNIT         ?PR?_IAP_WRITEBUF_WITH_PROTECT_VERIFY?IAP_FLASH
            CODE    59CBH     01F2H     UNIT         ?PR?EEPROM_IDCHECK?ID_DECODE
            CODE    5BBDH     01BEH     UNIT         ?PR?ML7345_TRX_DEL?ML7345
            CODE    5D7BH     0178H     UNIT         ?PR?_ML7345_FREQUENCY_SET?ML7345_HAL
            CODE    5EF3H     014AH     UNIT         ?PR?INT_T0?TIMER
            CODE    603DH     0129H     UNIT         ?PR?RX_ANALYSIS?ML7345
            CODE    6166H     0127H     UNIT         ?PR?ML7345D_CHANGE_CHANNEL?ML7345
            CODE    628DH     0127H     UNIT         ?PR?ML7345D_FREQ_SCANNING?ML7345
            CODE    63B4H     011AH     UNIT         ?PR?MAIN?MAIN
            CODE    64CEH     010DH     UNIT         ?PR?SCAN_RECEIVE_PACKET?ML7345
            CODE    65DBH     00FCH     UNIT         ?PR?_RECEIVEFRAME?UART
            CODE    66D7H     00EFH     UNIT         ?PR?_ML7345_SETANDGET_STATE?ML7345_HAL
            CODE    67C6H     00EDH     UNIT         ?PR?INT_UART0?UART
            CODE    68B3H     00D7H     UNIT         ?PR?_BEEP_MODULE?ID_DECODE
BL51 BANKED LINKER/LOCATER V6.22.2.0                                                  03/04/2022  11:08:01  PAGE 4


            CODE    698AH     00C6H     UNIT         ?PR?ID_LOGIN_EXIT_INITIAL?IAP_FLASH
            CODE    6A50H     00C5H     UNIT         ?PR?ML7345_DATARATE_SET_4_8K?ML7345_HAL
            CODE    6B15H     00B7H     UNIT         ?PR?ML7345_DATARATE_SET_1_2K?ML7345_HAL
            CODE    6BCCH     0097H     UNIT         ?PR?IAP_ERASE_ALL_ID?IAP_FLASH
            CODE    6C63H     008CH     UNIT         ?C_C51STARTUP
            CODE    6CEFH     007FH     UNIT         ?PR?DATARECEIVE?ML7345
            CODE    6D6EH     0077H     UNIT         ?PR?_ML7345_WRITE_FIFO?SPI
            CODE    6DE5H     0077H     UNIT         ?PR?UART_RF_BER_TEST?ML7345
            CODE    6E5CH     0074H     UNIT         ?PR?_ID_SCX1801_EEPROM_WRITE?IAP_FLASH
            CODE    6ED0H     0066H     UNIT         ?PR?INIT_PORT?GPIO
            CODE    6F36H     0064H     UNIT         ?PR?_RETURN_ID_DATA?ID_DECODE
            CODE    6F9AH     0062H     UNIT         ?PR?_ML7345_READ_FIFO?SPI
            CODE    6FFCH     005CH     UNIT         ?PR?TRANMISSIONACK?UART
            CODE    7058H     0055H     UNIT         ?PR?TEST_BEEP?ID_DECODE
            CODE    70ADH     0051H     UNIT         ?PR?RF_BER_TEST?ML7345
            CODE    70FEH     004FH     UNIT         ?PR?_TX_DATA_TEST?ML7345
            CODE    714DH     004EH     UNIT         ?PR?INT_INT0?GPIO
            CODE    719BH     004EH     UNIT         ?PR?INT_INT1?GPIO
            CODE    71E9H     004AH     UNIT         ?PR?RECEIVER_BEEP?ID_DECODE
            CODE    7233H     0045H     UNIT         ?PR?INIT_PCA_PWM?TIMER
            CODE    7278H     0044H     UNIT         ?C?LDIV
            CODE    72BCH     0041H     UNIT         ?PR?WAITSTATUS_COMPLETE?ML7345_HAL
            CODE    72FDH     0040H     UNIT         ?PR?ALL_ID_EEPROM_ERASE?IAP_FLASH
            CODE    733DH     0040H     UNIT         ?PR?ML7345_MEASURBER_INIT?ML7345
            CODE    737DH     0040H     UNIT         ?PR?_ML7345_AUTOTX_DATA?ML7345_HAL
            CODE    73BDH     003DH     UNIT         ?PR?_SEND_DATA?UART
            CODE    73FAH     003CH     UNIT         ?PR?INIT_CLOCK?SYS
            CODE    7436H     003AH     UNIT         ?PR?_ML7345_READ_REG?SPI
            CODE    7470H     0039H     UNIT         ?PR?_ML7345_STATEFLAG_CLEAR?ML7345_HAL
            CODE    74A9H     0038H     UNIT         ?PR?_IAP_WRITE_BYTE?IAP_FLASH
            CODE    74E1H     0032H     UNIT         ?PR?INIT_UART0_T1_ODD?UART
            CODE    7513H     0032H     UNIT         ?PR?SETREG_RSSI?ML7345_HAL
            CODE    7545H     0031H     UNIT         ?PR?_ML7345_WRITE_REG?SPI
            CODE    7576H     0030H     UNIT         ?PR?_HEX_ASC?UART
            CODE    75A6H     0030H     UNIT         ?PR?_ML7345_READRX_PACK?ML7345_HAL
            CODE    75D6H     002FH     UNIT         ?PR?_ML7345_AUTOSTATETRANSITION_SET?ML7345_HAL
            CODE    7605H     002DH     UNIT         ?PR?_ASC_HEX?UART
            CODE    7632H     002BH     UNIT         ?PR?_IAP_WRITEPPAGE?IAP_FLASH
            CODE    765DH     0028H     UNIT         ?PR?BEEP_AND_LED?ID_DECODE
            CODE    7685H     0026H     UNIT         ?PR?_IAP_ERASEPAGE?IAP_FLASH
            CODE    76ABH     0022H     UNIT         ?PR?INIT_SPI?SPI
            CODE    76CDH     0020H     UNIT         ?PR?_DELAY_MS?TIMER
            CODE    76EDH     001FH     UNIT         ?PR?INIT_TIMER0?TIMER
            CODE    770CH     001EH     UNIT         ?PR?_ASC_HEX_2?UART
            CODE    772AH     001DH     UNIT         ?PR?ML7345_ALLSTATEFLAG_CLEAR?ML7345_HAL
            CODE    7747H     001BH     UNIT         ?PR?_SPI1_SENDRECV_DATA?SPI
            CODE    7762H     0019H     UNIT         ?PR?RF_SYNCWORD_DONE?ML7345_HAL
            CODE    777BH     0017H     UNIT         ?PR?_DELAYXUS?TIMER
            CODE    7792H     0016H     UNIT         ?PR?ML7345_GPIO0TXDONEINT_ENABLE?ML7345_HAL
            CODE    77A8H     0016H     UNIT         ?PR?ML7345_GPIO0RXDONEINT_ENABLE?ML7345_HAL
            CODE    77BEH     0015H     UNIT         ?PR?_UART0SENDBYTE?UART
            CODE    77D3H     0014H     UNIT         ?PR?INIT_WDT?SYS
            CODE    77E7H     000FH     UNIT         ?CO?IAP_FLASH
            CODE    77F6H     000EH     UNIT         ?CO?UART
            CODE    7804H     000CH     UNIT         ?PR?INIT_INT1?GPIO
            CODE    7810H     000BH     UNIT         ?PR?INIT_IAP_FLASH?IAP_FLASH
            CODE    781BH     000AH     UNIT         ?PR?INIT_INTERRUPT?GPIO
BL51 BANKED LINKER/LOCATER V6.22.2.0                                                  03/04/2022  11:08:01  PAGE 5


            CODE    7825H     000AH     UNIT         ?PR?ML7345_RESETN_SET?ML7345_HAL
            CODE    782FH     0004H     UNIT         ?PR?INIT_BEEP?TIMER
            CODE    7833H     0003H     UNIT         ?PR?BEEP_ON?TIMER



OVERLAY MAP OF MODULE:   .\Objects\CRX1831DCM_MA82G5B32_Pro (MAIN)


SEGMENT
  +--> CALLED SEGMENT
---------------------
?PR?INT_INT0?GPIO
  +--> ?PR?ML7345_TRX_DEL?ML7345
  +--> ?PR?DATARECEIVE?ML7345

?PR?ML7345_TRX_DEL?ML7345
  +--> ?PR?RF_SYNCWORD_DONE?ML7345_HAL
  +--> ?PR?_ML7345_SETANDGET_STATE?ML7345_HAL
  +--> ?PR?_RF_ML7345_INIT?ML7345
  +--> ?PR?ML7345_GPIO0RXDONEINT_ENABLE?ML73...
  +--> ?PR?_ML7345_WRITE_REG?SPI
  +--> ?PR?_ML7345_READ_REG?SPI
  +--> ?PR?_ML7345_STATEFLAG_CLEAR?ML7345_HAL

?PR?RF_SYNCWORD_DONE?ML7345_HAL
  +--> ?PR?_ML7345_WRITE_REG?SPI
  +--> ?PR?_ML7345_READ_REG?SPI

?PR?_ML7345_WRITE_REG?SPI
  +--> ?PR?_DELAYXUS?TIMER
  +--> ?PR?_SPI1_SENDRECV_DATA?SPI

?PR?_ML7345_READ_REG?SPI
  +--> ?PR?_DELAYXUS?TIMER
  +--> ?PR?_SPI1_SENDRECV_DATA?SPI

?PR?_ML7345_SETANDGET_STATE?ML7345_HAL
  +--> ?PR?_ML7345_WRITE_REG?SPI
  +--> ?PR?_ML7345_READ_REG?SPI
  +--> ?PR?WAITSTATUS_COMPLETE?ML7345_HAL
  +--> ?PR?_ML7345_FREQUENCY_CALCUL?ML7345_HAL
  +--> ?PR?CLEARWDT?SYS
  +--> ?PR?_RF_ML7345_INIT?ML7345

?PR?WAITSTATUS_COMPLETE?ML7345_HAL
  +--> ?PR?_ML7345_WRITE_REG?SPI
  +--> ?PR?_ML7345_READ_REG?SPI
  +--> ?PR?CLEARWDT?SYS

?PR?_RF_ML7345_INIT?ML7345
  +--> ?PR?ML7345_RESETN_SET?ML7345_HAL
  +--> ?PR?_ML7345_READ_REG?SPI
  +--> ?PR?_ML7345_WRITE_REG?SPI
  +--> ?PR?SETREG_RSSI?ML7345_HAL
  +--> ?PR?ML7345_DATARATE_SET_4_8K?ML7345_HAL
  +--> ?PR?ML7345_DATARATE_SET_1_2K?ML7345_HAL
BL51 BANKED LINKER/LOCATER V6.22.2.0                                                  03/04/2022  11:08:01  PAGE 6


  +--> ?PR?ML7345_ALLSTATEFLAG_CLEAR?ML7345_HAL

?PR?ML7345_RESETN_SET?ML7345_HAL
  +--> ?PR?_DELAY_MS?TIMER

?PR?_DELAY_MS?TIMER
  +--> ?PR?_DELAYXUS?TIMER

?PR?SETREG_RSSI?ML7345_HAL
  +--> ?PR?_ML7345_WRITE_REG?SPI

?PR?ML7345_DATARATE_SET_4_8K?ML7345_HAL
  +--> ?PR?_ML7345_WRITE_REG?SPI

?PR?ML7345_DATARATE_SET_1_2K?ML7345_HAL
  +--> ?PR?_ML7345_WRITE_REG?SPI

?PR?ML7345_ALLSTATEFLAG_CLEAR?ML7345_HAL
  +--> ?PR?_ML7345_WRITE_REG?SPI

?PR?ML7345_GPIO0RXDONEINT_ENABLE?ML73...
  +--> ?PR?_ML7345_WRITE_REG?SPI

?PR?_ML7345_STATEFLAG_CLEAR?ML7345_HAL
  +--> ?PR?_ML7345_WRITE_REG?SPI

*** NEW ROOT ***************************************************

?PR?INT_INT1?GPIO
  +--> ?PR?ML7345_TRX_DEL?ML7345
  +--> ?PR?DATARECEIVE?ML7345

*** NEW ROOT ***************************************************

?PR?INT_UART0?UART
  +--> ?PR?_RECEIVEFRAME?UART

?PR?_RECEIVEFRAME?UART
  +--> ?PR?OPRATIONFRAME?UART

*** NEW ROOT ***************************************************

?C_C51STARTUP
  +--> ?PR?MAIN?MAIN
  +--> ?C_INITSEG

?PR?MAIN?MAIN
  +--> ?PR?INIT_WDT?SYS
  +--> ?PR?INIT_CLOCK?SYS
  +--> ?PR?CLEARWDT?SYS
  +--> ?PR?INIT_IAP_FLASH?IAP_FLASH
  +--> ?PR?EEPROM_SYS_LOAD?IAP_FLASH
  +--> ?PR?INIT_PORT?GPIO
  +--> ?PR?INIT_TIMER0?TIMER
  +--> ?PR?INIT_UART0_T1_ODD?UART
  +--> ?PR?INIT_BEEP?TIMER
  +--> ?PR?INIT_SPI?SPI
BL51 BANKED LINKER/LOCATER V6.22.2.0                                                  03/04/2022  11:08:01  PAGE 7


  +--> ?PR?_RF_ML7345_INIT?ML7345
  +--> ?PR?INIT_INTERRUPT?GPIO
  +--> ?PR?ML7345D_RF_TEST_MODE?ML7345
  +--> ?PR?_ML7345_SETANDGET_STATE?ML7345_HAL
  +--> ?PR?TEST_BEEP?ID_DECODE
  +--> ?PR?ID_DECODE_OUT?ID_DECODE
  +--> ?PR?ID_LEARN?IAP_FLASH
  +--> ?PR?APP_TX_PACKET?ML7345
  +--> ?PR?ML7345D_FREQ_SCANNING?ML7345
  +--> ?PR?SCAN_RECEIVE_PACKET?ML7345
  +--> ?PR?TRANMISSIONACK?UART

?PR?INIT_IAP_FLASH?IAP_FLASH
  +--> ?PR?_IAP_WRITEPPAGE?IAP_FLASH

?PR?EEPROM_SYS_LOAD?IAP_FLASH
  +--> ?CO?IAP_FLASH
  +--> ?PR?CLEARWDT?SYS
  +--> ?PR?_ML7345_FREQUENCY_CALCUL?ML7345_HAL

?PR?INIT_BEEP?TIMER
  +--> ?PR?INIT_PCA_PWM?TIMER

?PR?INIT_INTERRUPT?GPIO
  +--> ?PR?INIT_INT1?GPIO

?PR?ML7345D_RF_TEST_MODE?ML7345
  +--> ?PR?_BEEP_MODULE?ID_DECODE
  +--> ?PR?CLEARWDT?SYS
  +--> ?PR?_ML7345_SETANDGET_STATE?ML7345_HAL
  +--> ?PR?_ML7345_FREQUENCY_SET?ML7345_HAL
  +--> ?PR?_TX_DATA_TEST?ML7345
  +--> ?PR?ML7345_MEASURBER_INIT?ML7345
  +--> ?PR?RF_BER_TEST?ML7345
  +--> ?PR?PC_PRG?UART
  +--> ?PR?_RF_ML7345_INIT?ML7345
  +--> ?PR?ML7345_GPIO0RXDONEINT_ENABLE?ML73...
  +--> ?PR?ML7345_GPIO0TXDONEINT_ENABLE?ML73...

?PR?_BEEP_MODULE?ID_DECODE
  +--> ?PR?BEEP_ON?TIMER
  +--> ?PR?_DELAYXUS?TIMER
  +--> ?PR?CLEARWDT?SYS
  +--> ?PR?BEEP_OFF?TIMER

?PR?_ML7345_FREQUENCY_SET?ML7345_HAL
  +--> ?PR?_ML7345_SETANDGET_STATE?ML7345_HAL
  +--> ?PR?_ML7345_WRITE_REG?SPI
  +--> ?PR?ML7345_DATARATE_SET_1_2K?ML7345_HAL
  +--> ?PR?ML7345_DATARATE_SET_4_8K?ML7345_HAL
  +--> ?PR?_ML7345_READ_REG?SPI

?PR?_TX_DATA_TEST?ML7345
  +--> ?PR?_ML7345_WRITE_REG?SPI
  +--> ?PR?_ML7345_SETANDGET_STATE?ML7345_HAL

?PR?ML7345_MEASURBER_INIT?ML7345
BL51 BANKED LINKER/LOCATER V6.22.2.0                                                  03/04/2022  11:08:01  PAGE 8


  +--> ?PR?_ML7345_WRITE_REG?SPI

?PR?PC_PRG?UART
  +--> ?CO?UART
  +--> ?PR?_ML7345_SETANDGET_STATE?ML7345_HAL
  +--> ?PR?_SEND_DATA?UART
  +--> ?PR?_ML7345_FREQUENCY_SET?ML7345_HAL
  +--> ?PR?_TX_DATA_TEST?ML7345
  +--> ?PR?ALL_ID_EEPROM_ERASE?IAP_FLASH
  +--> ?PR?_ID_SCX1801_EEPROM_WRITE?IAP_FLASH
  +--> ?PR?_HEX_ASC?UART
  +--> ?PR?_ASC_HEX_2?UART
  +--> ?PR?_IAP_WRITEBUF_WITH_PROTECT_VERIFY...
  +--> ?PR?_ML7345_FREQUENCY_CALCUL?ML7345_HAL
  +--> ?PR?ML7345_MEASURBER_INIT?ML7345
  +--> ?PR?UART_RF_BER_TEST?ML7345

?PR?_SEND_DATA?UART
  +--> ?PR?_UART0SENDBYTE?UART

?PR?ALL_ID_EEPROM_ERASE?IAP_FLASH
  +--> ?PR?CLEARWDT?SYS
  +--> ?PR?IAP_ERASE_ALL_ID?IAP_FLASH

?PR?IAP_ERASE_ALL_ID?IAP_FLASH
  +--> ?CO?IAP_FLASH
  +--> ?PR?_IAP_ERASEPAGE?IAP_FLASH
  +--> ?PR?CLEARWDT?SYS
  +--> ?PR?_IAP_WRITE_BYTE?IAP_FLASH

?PR?_ID_SCX1801_EEPROM_WRITE?IAP_FLASH
  +--> ?CO?IAP_FLASH
  +--> ?PR?_IAP_WRITEBUF_WITH_PROTECT_VERIFY...

?PR?_IAP_WRITEBUF_WITH_PROTECT_VERIFY...
  +--> ?PR?CLEARWDT?SYS

?PR?_ASC_HEX_2?UART
  +--> ?PR?_ASC_HEX?UART

?PR?ML7345_GPIO0TXDONEINT_ENABLE?ML73...
  +--> ?PR?_ML7345_WRITE_REG?SPI

?PR?TEST_BEEP?ID_DECODE
  +--> ?PR?_BEEP_MODULE?ID_DECODE
  +--> ?PR?BEEP_ON?TIMER

?PR?ID_DECODE_OUT?ID_DECODE
  +--> ?PR?_SEND_DATA?UART
  +--> ?PR?RECEIVER_BEEP?ID_DECODE

?PR?RECEIVER_BEEP?ID_DECODE
  +--> ?PR?_BEEP_MODULE?ID_DECODE

?PR?ID_LEARN?IAP_FLASH
  +--> ?PR?_BEEP_MODULE?ID_DECODE
  +--> ?PR?ID_LOGIN_EXIT_INITIAL?IAP_FLASH
BL51 BANKED LINKER/LOCATER V6.22.2.0                                                  03/04/2022  11:08:01  PAGE 9


  +--> ?PR?BEEP_OFF?TIMER
  +--> ?PR?BEEP_ON?TIMER
  +--> ?PR?BEEP_AND_LED?ID_DECODE
  +--> ?PR?_ID_SCX1801_EEPROM_WRITE?IAP_FLASH
  +--> ?PR?_DELETE_GENERALID_EEPROM?IAP_FLASH
  +--> ?PR?ID_EEPROM_WRITE?IAP_FLASH
  +--> ?PR?ALL_ID_EEPROM_ERASE?IAP_FLASH

?PR?ID_LOGIN_EXIT_INITIAL?IAP_FLASH
  +--> ?PR?_BEEP_MODULE?ID_DECODE
  +--> ?PR?BEEP_OFF?TIMER

?PR?BEEP_AND_LED?ID_DECODE
  +--> ?PR?_BEEP_MODULE?ID_DECODE
  +--> ?PR?BEEP_OFF?TIMER

?PR?_DELETE_GENERALID_EEPROM?IAP_FLASH
  +--> ?CO?IAP_FLASH
  +--> ?PR?_RETURN_ID_DATA?ID_DECODE
  +--> ?PR?CLEARWDT?SYS
  +--> ?PR?ALL_ID_EEPROM_ERASE?IAP_FLASH
  +--> ?PR?_IAP_WRITEBUF_WITH_PROTECT_VERIFY...

?PR?ID_EEPROM_WRITE?IAP_FLASH
  +--> ?CO?IAP_FLASH
  +--> ?PR?_IAP_WRITEBUF_WITH_PROTECT_VERIFY...
  +--> ?PR?CLEARWDT?SYS
  +--> ?PR?ID_LOGIN_EXIT_INITIAL?IAP_FLASH

?PR?APP_TX_PACKET?ML7345
  +--> ?PR?_TX_DATALOAD_HIGHSPEED?ML7345
  +--> ?PR?_ML7345_SETANDGET_STATE?ML7345_HAL
  +--> ?PR?_ML7345_WRITE_REG?SPI
  +--> ?PR?ML7345_GPIO0TXDONEINT_ENABLE?ML73...
  +--> ?PR?_ML7345_AUTOTX_DATA?ML7345_HAL
  +--> ?PR?_RF_ML7345_INIT?ML7345

?PR?_TX_DATALOAD_HIGHSPEED?ML7345
  +--> ?PR?CLEARWDT?SYS

?PR?_ML7345_AUTOTX_DATA?ML7345_HAL
  +--> ?PR?_ML7345_WRITE_REG?SPI
  +--> ?PR?_ML7345_AUTOSTATETRANSITION_SET?M...
  +--> ?PR?_ML7345_WRITE_FIFO?SPI

?PR?_ML7345_AUTOSTATETRANSITION_SET?M...
  +--> ?PR?_ML7345_WRITE_REG?SPI

?PR?_ML7345_WRITE_FIFO?SPI
  +--> ?PR?_DELAYXUS?TIMER
  +--> ?PR?_SPI1_SENDRECV_DATA?SPI

?PR?ML7345D_FREQ_SCANNING?ML7345
  +--> ?PR?ML7345D_CHANGE_CHANNEL?ML7345
  +--> ?PR?_RF_ML7345_INIT?ML7345
  +--> ?PR?ML7345_GPIO0RXDONEINT_ENABLE?ML73...
  +--> ?PR?_ML7345_SETANDGET_STATE?ML7345_HAL
BL51 BANKED LINKER/LOCATER V6.22.2.0                                                  03/04/2022  11:08:01  PAGE 10



?PR?ML7345D_CHANGE_CHANNEL?ML7345
  +--> ?PR?_ML7345_FREQUENCY_SET?ML7345_HAL

?PR?SCAN_RECEIVE_PACKET?ML7345
  +--> ?PR?_ML7345_READRX_PACK?ML7345_HAL
  +--> ?PR?_ML7345_STATEFLAG_CLEAR?ML7345_HAL
  +--> ?PR?RX_ANALYSIS?ML7345
  +--> ?PR?_ML7345_SETANDGET_STATE?ML7345_HAL
  +--> ?PR?_ML7345_READ_REG?SPI
  +--> ?PR?_ML7345_WRITE_REG?SPI

?PR?_ML7345_READRX_PACK?ML7345_HAL
  +--> ?PR?_ML7345_WRITE_REG?SPI
  +--> ?PR?_ML7345_READ_FIFO?SPI

?PR?_ML7345_READ_FIFO?SPI
  +--> ?PR?_DELAYXUS?TIMER
  +--> ?PR?_SPI1_SENDRECV_DATA?SPI

?PR?RX_ANALYSIS?ML7345
  +--> ?PR?ID_DECODE_IDCHECK?ID_DECODE

?PR?ID_DECODE_IDCHECK?ID_DECODE
  +--> ?PR?_SIGNAL_DATA_DECODE?ID_DECODE
  +--> ?PR?EEPROM_IDCHECK?ID_DECODE
  +--> ?PR?BEEP_AND_LED?ID_DECODE
  +--> ?PR?ID_EEPROM_WRITE?IAP_FLASH
  +--> ?PR?_ID_SCX1801_EEPROM_WRITE?IAP_FLASH
  +--> ?PR?_RETURN_ID_DATA?ID_DECODE
  +--> ?PR?_DELETE_GENERALID_EEPROM?IAP_FLASH

?PR?EEPROM_IDCHECK?ID_DECODE
  +--> ?PR?_RETURN_ID_DATA?ID_DECODE

?PR?TRANMISSIONACK?UART
  +--> ?PR?_SEND_DATA?UART



SYMBOL TABLE OF MODULE:  .\Objects\CRX1831DCM_MA82G5B32_Pro (MAIN)

  VALUE           TYPE          NAME
  ----------------------------------

  -------         MODULE        MAIN
  C:0000H         SYMBOL        _ICE_DUMMY_
  D:0090H         PUBLIC        P1
  D:00A0H         PUBLIC        P2
  D:00C0H         PUBLIC        XICON
  D:00B0H         PUBLIC        P3
  D:00E8H         PUBLIC        P4
  D:00F8H         PUBLIC        P5
  D:00F8H         PUBLIC        P6
  B:00A8H.7       PUBLIC        EA
  D:00A8H         PUBLIC        IE
  D:00B8H         PUBLIC        IP0L
BL51 BANKED LINKER/LOCATER V6.22.2.0                                                  03/04/2022  11:08:01  PAGE 11


  D:00D8H         PUBLIC        CCON
  C:63B4H         PUBLIC        main
  B:00A0H.2       PUBLIC        P22
  B:00A0H.3       PUBLIC        P23
  D:0088H         PUBLIC        TCON
  B:00B0H.5       PUBLIC        P35
  D:0098H         PUBLIC        S0CON
  D:0098H         PUBLIC        S1CON
  D:00C8H         PUBLIC        T2CON
  D:00D0H         PUBLIC        PSW
  -------         PROC          MAIN
  C:63B4H         LINE#         22
  C:63B4H         LINE#         23
  C:63B4H         LINE#         24
  C:63B7H         LINE#         25
  C:63BAH         LINE#         26
  C:63BDH         LINE#         27
  C:63C0H         LINE#         28
  C:63C3H         LINE#         29
  C:63C6H         LINE#         30
  C:63C9H         LINE#         31
  C:63CCH         LINE#         32
  C:63CFH         LINE#         33
  C:63D2H         LINE#         34
  C:63D5H         LINE#         35
  C:63DFH         LINE#         36
  C:63EDH         LINE#         37
  C:63F7H         LINE#         38
  C:63FAH         LINE#         39
  C:63FDH         LINE#         40
  C:63FFH         LINE#         41
  C:6402H         LINE#         42
  C:6410H         LINE#         43
  C:641EH         LINE#         44
  C:6423H         LINE#         45
  C:6428H         LINE#         46
  C:642DH         LINE#         47
  C:6431H         LINE#         49
  C:6431H         LINE#         50
  C:6431H         LINE#         51
  C:6434H         LINE#         52
  C:6442H         LINE#         54
  C:644EH         LINE#         55
  C:6451H         LINE#         56
  C:6454H         LINE#         57
  C:6473H         LINE#         58
  C:648AH         LINE#         59
  C:648AH         LINE#         60
  C:648DH         LINE#         61
  C:6490H         LINE#         62
  C:6490H         LINE#         63
  C:6493H         LINE#         64
  C:64ABH         LINE#         65
  C:64AFH         LINE#         66
  C:64C8H         LINE#         67
  C:64CAH         LINE#         68
  -------         ENDPROC       MAIN
BL51 BANKED LINKER/LOCATER V6.22.2.0                                                  03/04/2022  11:08:01  PAGE 12


  -------         ENDMOD        MAIN

  -------         MODULE        SYS
  C:0000H         SYMBOL        _ICE_DUMMY_
  D:0090H         PUBLIC        P1
  D:00A0H         PUBLIC        P2
  D:00E7H         PUBLIC        ISPCR
  D:00C0H         PUBLIC        XICON
  D:00B0H         PUBLIC        P3
  D:00E8H         PUBLIC        P4
  D:00F8H         PUBLIC        P5
  D:00F8H         PUBLIC        P6
  D:00E1H         PUBLIC        WDTCR
  D:00A8H         PUBLIC        IE
  D:00B8H         PUBLIC        IP0L
  D:00C7H         PUBLIC        CKCON0
  D:00D8H         PUBLIC        CCON
  D:00E6H         PUBLIC        SCMD
  D:00E3H         PUBLIC        IFADRH
  D:00E5H         PUBLIC        IFMT
  D:00E4H         PUBLIC        IFADRL
  D:0088H         PUBLIC        TCON
  D:00E2H         PUBLIC        IFD
  C:000EH         PUBLIC        ClearWDT
  D:0097H         PUBLIC        PCON1
  D:0098H         PUBLIC        S0CON
  C:73FAH         PUBLIC        Init_Clock
  D:0098H         PUBLIC        S1CON
  C:77D3H         PUBLIC        Init_WDT
  D:00C8H         PUBLIC        T2CON
  D:00D0H         PUBLIC        PSW
  -------         PROC          INIT_CLOCK
  C:73FAH         LINE#         4
  C:73FAH         LINE#         5
  C:73FAH         LINE#         7
  C:73FDH         LINE#         8
  C:7419H         LINE#         9
  C:7435H         LINE#         19
  -------         ENDPROC       INIT_CLOCK
  -------         PROC          INIT_WDT
  C:77D3H         LINE#         22
  C:77D3H         LINE#         23
  C:77D3H         LINE#         24
  C:77D6H         LINE#         25
  C:77E0H         LINE#         26
  C:77E3H         LINE#         27
  C:77E6H         LINE#         28
  -------         ENDPROC       INIT_WDT
  -------         PROC          CLEARWDT
  C:000EH         LINE#         30
  C:000EH         LINE#         31
  C:000EH         LINE#         32
  C:0011H         LINE#         33
  -------         ENDPROC       CLEARWDT
  -------         ENDMOD        SYS

  -------         MODULE        GPIO
BL51 BANKED LINKER/LOCATER V6.22.2.0                                                  03/04/2022  11:08:01  PAGE 13


  C:0000H         SYMBOL        _ICE_DUMMY_
  D:0091H         PUBLIC        P1M0
  D:0095H         PUBLIC        P2M0
  D:00B1H         PUBLIC        P3M0
  D:0090H         PUBLIC        P1
  D:00B3H         PUBLIC        P4M0
  D:00B2H         PUBLIC        P3M1
  D:00A0H         PUBLIC        P2
  D:00C0H         PUBLIC        XICON
  D:00B0H         PUBLIC        P3
  D:00E8H         PUBLIC        P4
  D:00F8H         PUBLIC        P5
  D:00F8H         PUBLIC        P6
  D:00A8H         PUBLIC        IE
  C:0016H         PUBLIC        Init_INT0
  C:7804H         PUBLIC        Init_INT1
  D:00B8H         PUBLIC        IP0L
  C:6ED0H         PUBLIC        Init_Port
  D:00D8H         PUBLIC        CCON
  B:0090H.0       PUBLIC        P10
  B:00A0H.0       PUBLIC        P20
  B:0090H.1       PUBLIC        P11
  B:00A0H.1       PUBLIC        P21
  B:0090H.2       PUBLIC        P12
  B:00E8H.0       PUBLIC        P40
  B:0090H.3       PUBLIC        P13
  B:00E8H.1       PUBLIC        P41
  D:0088H         PUBLIC        TCON
  B:00A0H.4       PUBLIC        P24
  D:00B4H         PUBLIC        PUCON0
  B:00B0H.4       PUBLIC        P34
  B:00A0H.5       PUBLIC        P25
  B:0090H.6       PUBLIC        P16
  B:00B0H.5       PUBLIC        P35
  B:00A0H.7       PUBLIC        P27
  B:00A8H.4       PUBLIC        ES0
  B:00A8H.1       PUBLIC        ET0
  C:781BH         PUBLIC        Init_Interrupt
  B:0088H.0       PUBLIC        IT0
  B:00A8H.2       PUBLIC        EX1
  B:0088H.2       PUBLIC        IT1
  D:0098H         PUBLIC        S0CON
  D:0098H         PUBLIC        S1CON
  D:00C8H         PUBLIC        T2CON
  C:714DH         PUBLIC        INT_INT0
  C:719BH         PUBLIC        INT_INT1
  D:00A1H         PUBLIC        AUXR0
  D:00C1H         PUBLIC        XICFG
  D:00D0H         PUBLIC        PSW
  -------         PROC          INIT_PORT
  C:6ED0H         LINE#         10
  C:6ED0H         LINE#         11
  C:6ED0H         LINE#         13
  C:6ED3H         LINE#         14
  C:6ED6H         LINE#         15
  C:6ED8H         LINE#         16
  C:6EDBH         LINE#         19
BL51 BANKED LINKER/LOCATER V6.22.2.0                                                  03/04/2022  11:08:01  PAGE 14


  C:6EDEH         LINE#         20
  C:6EE1H         LINE#         21
  C:6EE3H         LINE#         22
  C:6EE6H         LINE#         25
  C:6EE9H         LINE#         26
  C:6EEBH         LINE#         31
  C:6EEEH         LINE#         32
  C:6EF1H         LINE#         33
  C:6EF3H         LINE#         36
  C:6EF6H         LINE#         37
  C:6EF9H         LINE#         38
  C:6EFBH         LINE#         43
  C:6F01H         LINE#         47
  C:6F04H         LINE#         48
  C:6F08H         LINE#         49
  C:6F0BH         LINE#         57
  C:6F19H         LINE#         58
  C:6F27H         LINE#         59
  C:6F29H         LINE#         60
  C:6F2BH         LINE#         61
  C:6F2DH         LINE#         62
  C:6F2FH         LINE#         63
  C:6F31H         LINE#         64
  C:6F33H         LINE#         65
  C:6F35H         LINE#         66
  -------         ENDPROC       INIT_PORT
  -------         PROC          INIT_INT0
  C:0016H         LINE#         79
  C:0016H         LINE#         80
  C:0016H         LINE#         81
  C:0019H         LINE#         82
  C:001EH         LINE#         84
  C:0021H         LINE#         85
  -------         ENDPROC       INIT_INT0
  -------         PROC          INIT_INT1
  C:7804H         LINE#         96
  C:7804H         LINE#         97
  C:7804H         LINE#         98
  C:7807H         LINE#         100
  C:780CH         LINE#         101
  C:780FH         LINE#         102
  -------         ENDPROC       INIT_INT1
  -------         PROC          INT_INT0
  C:714DH         LINE#         114
  C:716AH         LINE#         116
  C:717DH         LINE#         117
  C:7180H         LINE#         118
  -------         ENDPROC       INT_INT0
  -------         PROC          INT_INT1
  C:719BH         LINE#         130
  C:71B8H         LINE#         132
  C:71CBH         LINE#         133
  C:71CEH         LINE#         134
  -------         ENDPROC       INT_INT1
  -------         PROC          INIT_INTERRUPT
  C:781BH         LINE#         143
  C:781BH         LINE#         144
BL51 BANKED LINKER/LOCATER V6.22.2.0                                                  03/04/2022  11:08:01  PAGE 15


  C:781BH         LINE#         149
  C:781EH         LINE#         150
  C:7820H         LINE#         152
  C:7822H         LINE#         153
  C:7824H         LINE#         154
  -------         ENDPROC       INIT_INTERRUPT
  -------         ENDMOD        GPIO

  -------         MODULE        TIMER
  C:0000H         SYMBOL        _ICE_DUMMY_
  D:00F2H         PUBLIC        PCAPWM6
  D:0090H         PUBLIC        P1
  D:00A0H         PUBLIC        P2
  D:00C0H         PUBLIC        XICON
  D:00B0H         PUBLIC        P3
  D:00E8H         PUBLIC        P4
  D:00F8H         PUBLIC        P5
  D:00F8H         PUBLIC        P6
  D:00ACH         PUBLIC        SFRPI
  D:00F9H         PUBLIC        CH
  D:00BCH         PUBLIC        PWMCR
  D:00A8H         PUBLIC        IE
  D:00E9H         PUBLIC        CL
  B:00D8H.6       PUBLIC        CR
  D:00B8H         PUBLIC        IP0L
  D:00FAH         PUBLIC        CCAP6H
  D:00EAH         PUBLIC        CCAP6L
  C:7833H         PUBLIC        Beep_On
  D:00DAH         PUBLIC        CCAPM6
  C:7233H         PUBLIC        Init_PCA_PWM
  D:00D9H         PUBLIC        CMOD
  D:00D8H         PUBLIC        CCON
  D:00CFH         PUBLIC        CHRL
  C:76EDH         PUBLIC        Init_Timer0
  D:00CEH         PUBLIC        CLRL
  B:00A0H.0       PUBLIC        P20
  C:777BH         PUBLIC        _DelayXus
  D:0089H         PUBLIC        TMOD
  D:0088H         PUBLIC        TCON
  D:008CH         PUBLIC        TH0
  C:5EF3H         PUBLIC        INT_T0
  D:008AH         PUBLIC        TL0
  C:76CDH         PUBLIC        _delay_ms
  B:0088H.4       PUBLIC        TR0
  I:00D0H         PUBLIC        Time_Tx_Out
  D:0098H         PUBLIC        S0CON
  D:0098H         PUBLIC        S1CON
  D:00C8H         PUBLIC        T2CON
  D:00A1H         PUBLIC        AUXR0
  D:00A3H         PUBLIC        AUXR2
  C:782FH         PUBLIC        Init_Beep
  C:0006H         PUBLIC        Beep_Off
  D:00F2H         PUBLIC        PCAPWM0
  D:00D0H         PUBLIC        PSW
  -------         PROC          INIT_TIMER0
  C:76EDH         LINE#         29
  C:76EDH         LINE#         30
BL51 BANKED LINKER/LOCATER V6.22.2.0                                                  03/04/2022  11:08:01  PAGE 16


  C:76EDH         LINE#         31
  C:76F7H         LINE#         33
  C:7700H         LINE#         35
  C:7703H         LINE#         37
  C:7706H         LINE#         38
  C:7709H         LINE#         40
  C:770BH         LINE#         41
  -------         ENDPROC       INIT_TIMER0
  -------         PROC          INT_T0
  C:5EF3H         LINE#         51
  C:5F04H         LINE#         53
  C:5F07H         LINE#         54
  C:5F0AH         LINE#         56
  C:5F16H         LINE#         57
  C:5F24H         LINE#         58
  C:5F30H         LINE#         59
  C:5F3EH         LINE#         60
  C:5F4AH         LINE#         61
  C:5F58H         LINE#         62
  C:5F63H         LINE#         63
  C:5F6BH         LINE#         64
  C:5F77H         LINE#         65
  C:5F85H         LINE#         66
  C:5F8CH         LINE#         67
  C:5F91H         LINE#         69
  C:5F91H         LINE#         70
  C:5F95H         LINE#         71
  C:5FA3H         LINE#         72
  C:5FA3H         LINE#         73
  C:5FABH         LINE#         74
  C:5FB1H         LINE#         75
  C:5FB9H         LINE#         76
  C:5FBFH         LINE#         77
  C:5FC7H         LINE#         78
  C:5FCDH         LINE#         79
  C:5FD9H         LINE#         80
  C:5FE7H         LINE#         81
  C:5FF3H         LINE#         82
  C:6001H         LINE#         84
  C:6014H         LINE#         85
  C:602EH         LINE#         86
  -------         ENDPROC       INT_T0
  -------         PROC          INIT_PCA_PWM
  C:7233H         LINE#         90
  C:7233H         LINE#         91
  C:7233H         LINE#         92
  C:723DH         LINE#         93
  C:7246H         LINE#         94
  C:7252H         LINE#         95
  C:7255H         LINE#         98
  C:726BH         LINE#         101
  C:7271H         LINE#         102
  C:7277H         LINE#         103
  -------         ENDPROC       INIT_PCA_PWM
  -------         PROC          INIT_BEEP
  C:782FH         LINE#         105
  C:782FH         LINE#         106
BL51 BANKED LINKER/LOCATER V6.22.2.0                                                  03/04/2022  11:08:01  PAGE 17


  C:782FH         LINE#         107
  C:7832H         LINE#         108
  -------         ENDPROC       INIT_BEEP
  -------         PROC          BEEP_ON
  C:7833H         LINE#         110
  C:7833H         LINE#         111
  C:7833H         LINE#         112
  C:7835H         LINE#         113
  -------         ENDPROC       BEEP_ON
  -------         PROC          BEEP_OFF
  C:0006H         LINE#         115
  C:0006H         LINE#         116
  C:0006H         LINE#         117
  C:0008H         LINE#         118
  C:000AH         LINE#         119
  -------         ENDPROC       BEEP_OFF
  -------         PROC          _DELAYXUS
  D:001FH         SYMBOL        xUs
  C:777BH         LINE#         129
  C:777DH         LINE#         130
  C:777DH         LINE#         131
  C:7785H         LINE#         132
  C:7785H         LINE#         133
  C:7786H         LINE#         134
  C:7787H         LINE#         135
  C:7788H         LINE#         136
  C:7789H         LINE#         137
  C:778AH         LINE#         138
  C:778BH         LINE#         139
  C:778CH         LINE#         140
  C:778DH         LINE#         141
  C:778FH         LINE#         142
  C:7791H         LINE#         143
  -------         ENDPROC       _DELAYXUS
  -------         PROC          _DELAY_MS
  D:0060H         SYMBOL        ms
  C:76CDH         LINE#         153
  C:76CFH         LINE#         154
  C:76CFH         LINE#         155
  C:76D6H         LINE#         156
  C:76D6H         LINE#         157
  C:76DBH         LINE#         158
  C:76E0H         LINE#         159
  C:76E5H         LINE#         160
  C:76EAH         LINE#         161
  C:76ECH         LINE#         162
  -------         ENDPROC       _DELAY_MS
  -------         ENDMOD        TIMER

  -------         MODULE        UART
  C:0000H         SYMBOL        _ICE_DUMMY_
  D:0090H         PUBLIC        P1
  D:00A0H         PUBLIC        P2
  B:0098H.6       PUBLIC        SM10
  D:00C0H         PUBLIC        XICON
  D:00B0H         PUBLIC        P3
  D:00E8H         PUBLIC        P4
BL51 BANKED LINKER/LOCATER V6.22.2.0                                                  03/04/2022  11:08:01  PAGE 18


  D:00F8H         PUBLIC        P5
  X:0659H         PUBLIC        Databits_t
  D:00F8H         PUBLIC        P6
  D:00ACH         PUBLIC        SFRPI
  X:065DH         PUBLIC        FLAG_testNo91_step
  D:00A8H         PUBLIC        IE
  X:065EH         PUBLIC        FLAG_testNo91SendUart
  D:00B8H         PUBLIC        IP0L
  B:0098H.4       PUBLIC        REN0
  X:065FH         PUBLIC        UART_DATA_buffer
  X:0688H         PUBLIC        UART_DATA_ID98
  X:06B1H         PUBLIC        U1AckTimer
  D:00D8H         PUBLIC        CCON
  X:06B2H         PUBLIC        UartStatus
  X:06B3H         PUBLIC        UartCount
  B:00C8H.5       PUBLIC        RCLK
  B:00C8H.4       PUBLIC        TCLK
  B:0090H.0       PUBLIC        P10
  B:0090H.1       PUBLIC        P11
  B:00A0H.1       PUBLIC        P21
  B:0090H.2       PUBLIC        P12
  B:00A0H.2       PUBLIC        P22
  B:00A0H.3       PUBLIC        P23
  D:0089H         PUBLIC        TMOD
  D:0088H         PUBLIC        TCON
  C:65DBH         PUBLIC        _ReceiveFrame
  B:00A0H.5       PUBLIC        P25
  B:00B0H.5       PUBLIC        P35
  B:00A0H.7       PUBLIC        P27
  C:67C6H         PUBLIC        INT_UART0
  X:06B4H         PUBLIC        UartLen
  C:49FEH         PUBLIC        OprationFrame
  C:77F6H         SYMBOL        _?ix1000
  I:00CDH         PUBLIC        ACKBack
  C:7800H         SYMBOL        _?ix1001
  X:06B5H         PUBLIC        PROFILE_CH_FREQ_32bit_200002EC_uart
  B:00A8H.4       PUBLIC        ES0
  B:0098H.0       PUBLIC        RI0
  B:0098H.1       PUBLIC        TI0
  D:008DH         PUBLIC        TH1
  D:008BH         PUBLIC        TL1
  D:009CH         PUBLIC        S0CFG
  B:0088H.6       PUBLIC        TR1
  X:06B9H         PUBLIC        uart0_rx_len
  X:06BAH         PUBLIC        FLAG_testBEEP
  X:06BBH         PUBLIC        uart0_tx_len
  C:0026H         PUBLIC        PC_PRG
  C:7576H         PUBLIC        _hex_asc
  C:7605H         PUBLIC        _asc_hex
  D:0099H         PUBLIC        S0BUF
  D:0087H         PUBLIC        PCON0
  C:74E1H         PUBLIC        Init_Uart0_T1_ODD
  D:0098H         PUBLIC        S0CON
  D:0098H         PUBLIC        S1CON
  X:06BCH         PUBLIC        FLAG_testNo91
  D:00C8H         PUBLIC        T2CON
  C:73BDH         PUBLIC        _Send_Data
BL51 BANKED LINKER/LOCATER V6.22.2.0                                                  03/04/2022  11:08:01  PAGE 19


  B:0098H.7       PUBLIC        SM00_FE
  C:6FFCH         PUBLIC        TranmissionACK
  C:770CH         PUBLIC        _asc_hex_2
  C:77BEH         PUBLIC        _Uart0SendByte
  B:0020H.1       PUBLIC        rx_done
  D:00A3H         PUBLIC        AUXR2
  X:06BDH         PUBLIC        U1Statues
  D:00D0H         PUBLIC        PSW
  -------         PROC          INIT_UART0_T1_ODD
  C:74E1H         LINE#         73
  C:74E1H         LINE#         74
  C:74E1H         LINE#         75
  C:74E8H         LINE#         76
  C:74EAH         LINE#         78
  C:74F1H         LINE#         79
  C:74F7H         LINE#         81
  C:7501H         LINE#         82
  C:7507H         LINE#         83
  C:750AH         LINE#         87
  C:750DH         LINE#         88
  C:7510H         LINE#         96
  C:7512H         LINE#         97
  -------         ENDPROC       INIT_UART0_T1_ODD
  -------         PROC          INT_UART0
  -------         DO            
  I:00D8H         SYMBOL        dat
  -------         ENDDO         
  C:67C6H         LINE#         108
  C:67E3H         LINE#         110
  C:67E7H         LINE#         111
  C:67E9H         LINE#         113
  C:67ECH         LINE#         114
  C:67EFH         LINE#         115
  C:67EFH         LINE#         116
  C:67F1H         LINE#         117
  C:67F1H         LINE#         118
  C:67F7H         LINE#         119
  C:67F7H         LINE#         120
  C:67F9H         LINE#         121
  C:67FDH         LINE#         122
  C:6815H         LINE#         124
  C:6815H         LINE#         125
  C:6822H         LINE#         126
  C:6837H         LINE#         127
  C:6848H         LINE#         128
  C:6851H         LINE#         129
  C:6851H         LINE#         130
  C:6863H         LINE#         131
  C:6863H         LINE#         132
  C:6883H         LINE#         133
  C:6888H         LINE#         134
  C:6896H         LINE#         136
  C:6896H         LINE#         137
  C:6896H         LINE#         138
  C:6896H         LINE#         139
  C:6898H         LINE#         140
  -------         ENDPROC       INT_UART0
BL51 BANKED LINKER/LOCATER V6.22.2.0                                                  03/04/2022  11:08:01  PAGE 20


  -------         PROC          _UART0SENDBYTE
  D:0061H         SYMBOL        tByte
  -------         DO            
  B:0020H.0       SYMBOL        bES
  -------         ENDDO         
  C:77BEH         LINE#         148
  C:77C0H         LINE#         149
  C:77C0H         LINE#         151
  C:77C4H         LINE#         152
  C:77C6H         LINE#         153
  C:77C9H         LINE#         155
  C:77CCH         LINE#         156
  C:77CEH         LINE#         157
  C:77D2H         LINE#         158
  -------         ENDPROC       _UART0SENDBYTE
  -------         PROC          _SEND_DATA
  D:0037H         SYMBOL        buff
  D:003AH         SYMBOL        len
  -------         DO            
  X:0643H         SYMBOL        i
  -------         ENDDO         
  C:73BDH         LINE#         161
  C:73C5H         LINE#         162
  C:73C5H         LINE#         163
  C:73CAH         LINE#         164
  C:73DAH         LINE#         165
  C:73DAH         LINE#         166
  C:73F1H         LINE#         167
  C:73F9H         LINE#         168
  -------         ENDPROC       _SEND_DATA
  -------         PROC          _ASC_HEX
  D:0062H         SYMBOL        asc
  -------         DO            
  X:0644H         SYMBOL        i
  -------         ENDDO         
  C:7605H         LINE#         170
  C:7607H         LINE#         171
  C:7607H         LINE#         173
  C:7616H         LINE#         174
  C:7622H         LINE#         176
  C:762CH         LINE#         177
  C:7631H         LINE#         178
  -------         ENDPROC       _ASC_HEX
  -------         PROC          _HEX_ASC
  D:0063H         SYMBOL        hex
  -------         DO            
  X:0645H         SYMBOL        i
  -------         ENDDO         
  C:7576H         LINE#         180
  C:7578H         LINE#         181
  C:7578H         LINE#         183
  C:757BH         LINE#         184
  C:758AH         LINE#         185
  C:7596H         LINE#         187
  C:75A0H         LINE#         188
  C:75A5H         LINE#         189
  -------         ENDPROC       _HEX_ASC
BL51 BANKED LINKER/LOCATER V6.22.2.0                                                  03/04/2022  11:08:01  PAGE 21


  -------         PROC          _ASC_HEX_2
  D:0053H         SYMBOL        asc1
  D:0054H         SYMBOL        asc0
  -------         DO            
  D:0055H         SYMBOL        i
  -------         ENDDO         
  C:770CH         LINE#         191
  C:7710H         LINE#         192
  C:7710H         LINE#         194
  C:7727H         LINE#         195
  C:7729H         LINE#         196
  -------         ENDPROC       _ASC_HEX_2
  -------         PROC          _RECEIVEFRAME
  D:0064H         SYMBOL        Cache
  C:65DBH         LINE#         199
  C:65DDH         LINE#         200
  C:65DDH         LINE#         201
  C:65F0H         LINE#         202
  C:65F0H         LINE#         203
  C:65F0H         LINE#         204
  C:65F0H         LINE#         205
  C:65FAH         LINE#         206
  C:6604H         LINE#         207
  C:660AH         LINE#         208
  C:6624H         LINE#         210
  C:6624H         LINE#         211
  C:662AH         LINE#         212
  C:6630H         LINE#         213
  C:663AH         LINE#         214
  C:6651H         LINE#         215
  C:6651H         LINE#         216
  C:6651H         LINE#         217
  C:6653H         LINE#         218
  C:6653H         LINE#         219
  C:6653H         LINE#         220
  C:6665H         LINE#         221
  C:666BH         LINE#         222
  C:667EH         LINE#         223
  C:6684H         LINE#         224
  C:6684H         LINE#         225
  C:6686H         LINE#         226
  C:6686H         LINE#         227
  C:668BH         LINE#         228
  C:6690H         LINE#         229
  C:6690H         LINE#         230
  C:6690H         LINE#         231
  C:669DH         LINE#         232
  C:669DH         LINE#         234
  C:66A0H         LINE#         235
  C:66A5H         LINE#         236
  C:66AAH         LINE#         238
  C:66CAH         LINE#         240
  C:66CAH         LINE#         241
  C:66D0H         LINE#         242
  C:66D6H         LINE#         243
  C:66D6H         LINE#         244
  C:66D6H         LINE#         245
BL51 BANKED LINKER/LOCATER V6.22.2.0                                                  03/04/2022  11:08:01  PAGE 22


  -------         ENDPROC       _RECEIVEFRAME
  -------         PROC          OPRATIONFRAME
  -------         DO            
  I:00D9H         SYMBOL        i
  -------         ENDDO         
  C:49FEH         LINE#         247
  C:49FEH         LINE#         248
  C:49FEH         LINE#         249
  C:4A02H         LINE#         250
  C:4A17H         LINE#         251
  C:4A3CH         LINE#         252
  C:4A4CH         LINE#         253
  C:4A4CH         LINE#         254
  C:4A5AH         LINE#         255
  C:4A66H         LINE#         256
  C:4A74H         LINE#         260
  C:4AC6H         LINE#         261
  C:4AF8H         LINE#         262
  C:4B06H         LINE#         263
  C:4B0AH         LINE#         264
  C:4B32H         LINE#         265
  C:4B32H         LINE#         266
  C:4B32H         LINE#         267
  C:4B32H         LINE#         268
  C:4B32H         LINE#         269
  C:4B32H         LINE#         270
  C:4B32H         LINE#         271
  C:4B32H         LINE#         272
  C:4B34H         LINE#         273
  C:4B34H         LINE#         274
  C:4B39H         LINE#         276
  C:4B39H         LINE#         277
  C:4B39H         LINE#         278
  C:4B5CH         LINE#         279
  C:4B5CH         LINE#         280
  C:4B5CH         LINE#         281
  C:4B5CH         LINE#         282
  C:4B5CH         LINE#         283
  C:4B5CH         LINE#         284
  C:4B5CH         LINE#         285
  C:4B5CH         LINE#         286
  C:4B5EH         LINE#         287
  C:4B5EH         LINE#         288
  C:4B63H         LINE#         290
  C:4B63H         LINE#         291
  C:4B63H         LINE#         292
  C:4B94H         LINE#         293
  C:4B94H         LINE#         294
  C:4B94H         LINE#         295
  C:4B94H         LINE#         296
  C:4B94H         LINE#         297
  C:4B94H         LINE#         298
  C:4B94H         LINE#         299
  C:4B94H         LINE#         300
  C:4B94H         LINE#         301
  C:4B94H         LINE#         302
  C:4B94H         LINE#         303
BL51 BANKED LINKER/LOCATER V6.22.2.0                                                  03/04/2022  11:08:01  PAGE 23


  C:4B94H         LINE#         304
  C:4B94H         LINE#         305
  C:4B94H         LINE#         306
  C:4B95H         LINE#         307
  C:4B95H         LINE#         308
  C:4B9AH         LINE#         310
  C:4B9AH         LINE#         311
  C:4B9AH         LINE#         312
  C:4B9BH         LINE#         313
  C:4BABH         LINE#         314
  C:4BABH         LINE#         315
  C:4BB0H         LINE#         316
  C:4BB5H         LINE#         317
  C:4BEFH         LINE#         318
  C:4BFDH         LINE#         319
  C:4C1BH         LINE#         320
  C:4C20H         LINE#         321
  C:4C25H         LINE#         322
  C:4C2BH         LINE#         323
  C:4C2CH         LINE#         324
  C:4C39H         LINE#         325
  C:4C39H         LINE#         326
  C:4C61H         LINE#         327
  C:4C61H         LINE#         328
  C:4C65H         LINE#         329
  C:4C6BH         LINE#         330
  C:4C7DH         LINE#         331
  C:4C83H         LINE#         332
  C:4C88H         LINE#         333
  C:4C92H         LINE#         334
  C:4C93H         LINE#         336
  C:4C93H         LINE#         337
  C:4C97H         LINE#         338
  C:4C9DH         LINE#         339
  C:4CA7H         LINE#         340
  C:4CADH         LINE#         341
  C:4CADH         LINE#         342
  C:4CAEH         LINE#         343
  C:4CBBH         LINE#         344
  C:4CBBH         LINE#         345
  C:4CDAH         LINE#         346
  C:4CDAH         LINE#         347
  C:4CDAH         LINE#         348
  C:4CE0H         LINE#         349
  C:4CEAH         LINE#         350
  C:4CEBH         LINE#         351
  C:4CEBH         LINE#         352
  C:4CF1H         LINE#         353
  C:4CFBH         LINE#         354
  C:4CFCH         LINE#         355
  C:4CFCH         LINE#         356
  C:4D02H         LINE#         357
  C:4D0CH         LINE#         358
  C:4D0DH         LINE#         359
  C:4D0DH         LINE#         360
  C:4D13H         LINE#         361
  C:4D14H         LINE#         362
BL51 BANKED LINKER/LOCATER V6.22.2.0                                                  03/04/2022  11:08:01  PAGE 24


  C:4D14H         LINE#         363
  C:4D1AH         LINE#         364
  C:4D1BH         LINE#         365
  C:4D1BH         LINE#         366
  C:4D21H         LINE#         367
  C:4D22H         LINE#         368
  C:4D22H         LINE#         369
  C:4D23H         LINE#         370
  C:4D23H         LINE#         372
  C:4D24H         LINE#         374
  C:4D24H         LINE#         375
  C:4D28H         LINE#         377
  C:4D28H         LINE#         378
  -------         ENDPROC       OPRATIONFRAME
  -------         PROC          TRANMISSIONACK
  C:6FFCH         LINE#         381
  C:6FFCH         LINE#         382
  C:6FFCH         LINE#         383
  C:7014H         LINE#         384
  C:7014H         LINE#         385
  C:701AH         LINE#         386
  C:7025H         LINE#         387
  C:702AH         LINE#         388
  C:702AH         LINE#         390
  C:7042H         LINE#         391
  C:7042H         LINE#         392
  C:704DH         LINE#         393
  C:7052H         LINE#         394
  C:7057H         LINE#         395
  C:7057H         LINE#         396
  -------         ENDPROC       TRANMISSIONACK
  -------         PROC          PC_PRG
  -------         DO            
  X:0646H         SYMBOL        send_dat
  X:0650H         SYMBOL        send_ok
  X:0654H         SYMBOL        UART_ID_data
  X:0658H         SYMBOL        re_byte
  -------         ENDDO         
  C:0026H         LINE#         399
  C:0026H         LINE#         400
  C:0026H         LINE#         401
  C:004BH         LINE#         402
  C:0070H         LINE#         404
  C:0075H         LINE#         406
  C:0081H         LINE#         407
  C:0081H         LINE#         408
  C:008FH         LINE#         410
  C:00C4H         LINE#         411
  C:00C4H         LINE#         412
  C:00D0H         LINE#         413
  C:00DCH         LINE#         414
  C:00E8H         LINE#         415
  C:00EAH         LINE#         416
  C:00ECH         LINE#         417
  C:00EEH         LINE#         418
  C:00F0H         LINE#         419
  C:00F2H         LINE#         420
BL51 BANKED LINKER/LOCATER V6.22.2.0                                                  03/04/2022  11:08:01  PAGE 25


  C:00F4H         LINE#         421
  C:00FCH         LINE#         422
  C:0104H         LINE#         423
  C:0109H         LINE#         424
  C:010EH         LINE#         425
  C:0119H         LINE#         426
  C:0119H         LINE#         427
  C:0133H         LINE#         428
  C:0133H         LINE#         429
  C:0155H         LINE#         430
  C:0155H         LINE#         431
  C:0155H         LINE#         432
  C:0162H         LINE#         433
  C:0162H         LINE#         434
  C:017AH         LINE#         435
  C:0186H         LINE#         436
  C:0192H         LINE#         437
  C:0196H         LINE#         438
  C:019BH         LINE#         439
  C:01A6H         LINE#         440
  C:01ABH         LINE#         441
  C:01B6H         LINE#         442
  C:01B6H         LINE#         443
  C:01B9H         LINE#         444
  C:01B9H         LINE#         445
  C:01D7H         LINE#         446
  C:01D7H         LINE#         447
  C:01E3H         LINE#         448
  C:01EFH         LINE#         449
  C:01FBH         LINE#         450
  C:01FDH         LINE#         451
  C:01FFH         LINE#         452
  C:0201H         LINE#         453
  C:0203H         LINE#         454
  C:0205H         LINE#         455
  C:0207H         LINE#         456
  C:020FH         LINE#         457
  C:0217H         LINE#         458
  C:021CH         LINE#         459
  C:0221H         LINE#         460
  C:022CH         LINE#         461
  C:022FH         LINE#         462
  C:0249H         LINE#         463
  C:0249H         LINE#         464
  C:0251H         LINE#         465
  C:0254H         LINE#         466
  C:025EH         LINE#         467
  C:0269H         LINE#         468
  C:0274H         LINE#         469
  C:0274H         LINE#         470
  C:0277H         LINE#         471
  C:0277H         LINE#         472
  C:028BH         LINE#         473
  C:028BH         LINE#         474
  C:02A3H         LINE#         475
  C:02AFH         LINE#         476
  C:02BBH         LINE#         477
BL51 BANKED LINKER/LOCATER V6.22.2.0                                                  03/04/2022  11:08:01  PAGE 26


  C:02BFH         LINE#         478
  C:02C4H         LINE#         479
  C:02CFH         LINE#         480
  C:02D4H         LINE#         481
  C:02DFH         LINE#         482
  C:02E2H         LINE#         483
  C:0300H         LINE#         484
  C:0300H         LINE#         485
  C:0306H         LINE#         486
  C:030CH         LINE#         487
  C:0312H         LINE#         488
  C:0324H         LINE#         489
  C:0335H         LINE#         490
  C:033BH         LINE#         491
  C:0346H         LINE#         492
  C:0349H         LINE#         493
  C:037AH         LINE#         494
  C:037AH         LINE#         495
  C:0386H         LINE#         496
  C:0398H         LINE#         497
  C:039DH         LINE#         498
  C:03A1H         LINE#         499
  C:03B6H         LINE#         500
  C:03B6H         LINE#         501
  C:03C0H         LINE#         502
  C:03D3H         LINE#         503
  C:03FAH         LINE#         504
  C:0411H         LINE#         505
  C:041CH         LINE#         506
  C:0443H         LINE#         507
  C:045AH         LINE#         508
  C:0465H         LINE#         509
  C:0468H         LINE#         510
  C:0495H         LINE#         511
  C:0495H         LINE#         512
  C:049FH         LINE#         513
  C:04B2H         LINE#         514
  C:04B9H         LINE#         515
  C:04E5H         LINE#         516
  C:04FCH         LINE#         517
  C:0507H         LINE#         518
  C:0533H         LINE#         519
  C:054AH         LINE#         520
  C:0555H         LINE#         521
  C:0555H         LINE#         522
  C:055AH         LINE#         523
  C:055AH         LINE#         524
  C:055DH         LINE#         526
  C:055DH         LINE#         527
  C:05A1H         LINE#         528
  C:05A1H         LINE#         529
  C:05A7H         LINE#         530
  C:05ADH         LINE#         531
  C:05B3H         LINE#         532
  C:05B9H         LINE#         533
  C:05BFH         LINE#         534
  C:05D5H         LINE#         535
BL51 BANKED LINKER/LOCATER V6.22.2.0                                                  03/04/2022  11:08:01  PAGE 27


  C:05E6H         LINE#         536
  C:05ECH         LINE#         537
  C:05F7H         LINE#         538
  C:05FAH         LINE#         539
  C:060EH         LINE#         540
  C:060EH         LINE#         541
  C:0610H         LINE#         542
  C:061CH         LINE#         543
  C:0624H         LINE#         544
  C:062CH         LINE#         545
  C:0631H         LINE#         546
  C:0635H         LINE#         547
  C:063AH         LINE#         548
  C:0644H         LINE#         549
  C:064FH         LINE#         550
  C:0652H         LINE#         551
  C:0657H         LINE#         552
  C:0663H         LINE#         553
  C:066EH         LINE#         554
  C:0671H         LINE#         555
  C:068BH         LINE#         556
  C:068BH         LINE#         557
  C:06B9H         LINE#         558
  C:06C6H         LINE#         559
  C:06CCH         LINE#         560
  C:06D2H         LINE#         561
  C:06D8H         LINE#         562
  C:06EEH         LINE#         563
  C:06FFH         LINE#         564
  C:0705H         LINE#         565
  C:070AH         LINE#         566
  C:0715H         LINE#         567
  C:0718H         LINE#         568
  C:0732H         LINE#         569
  C:0732H         LINE#         570
  C:074CH         LINE#         571
  C:074CH         LINE#         572
  C:0751H         LINE#         573
  C:075CH         LINE#         574
  C:0767H         LINE#         575
  C:0772H         LINE#         576
  C:07B6H         LINE#         577
  C:07CAH         LINE#         578
  C:07D0H         LINE#         579
  C:07D6H         LINE#         580
  C:07DCH         LINE#         581
  C:07EEH         LINE#         582
  C:07FFH         LINE#         583
  C:0811H         LINE#         584
  C:0822H         LINE#         585
  C:0834H         LINE#         586
  C:0845H         LINE#         587
  C:084BH         LINE#         588
  C:0856H         LINE#         589
  C:0856H         LINE#         590
  C:0856H         LINE#         591
  C:0859H         LINE#         592
BL51 BANKED LINKER/LOCATER V6.22.2.0                                                  03/04/2022  11:08:01  PAGE 28


  C:0859H         LINE#         593
  C:0873H         LINE#         594
  C:0873H         LINE#         595
  C:0879H         LINE#         596
  C:087FH         LINE#         597
  C:0885H         LINE#         598
  C:088AH         LINE#         599
  C:089CH         LINE#         600
  C:08B2H         LINE#         601
  C:08C3H         LINE#         602
  C:08C9H         LINE#         603
  C:08D4H         LINE#         604
  C:08D4H         LINE#         605
  C:08D7H         LINE#         606
  C:08D7H         LINE#         607
  C:08F1H         LINE#         608
  C:08F1H         LINE#         609
  C:0913H         LINE#         610
  C:0935H         LINE#         611
  C:0957H         LINE#         612
  C:0979H         LINE#         613
  C:099BH         LINE#         614
  C:09C2H         LINE#         615
  C:09C5H         LINE#         616
  C:09DFH         LINE#         617
  C:09DFH         LINE#         618
  C:0A01H         LINE#         619
  C:0A23H         LINE#         620
  C:0A45H         LINE#         621
  C:0A67H         LINE#         622
  C:0A89H         LINE#         623
  C:0AB0H         LINE#         624
  C:0AB0H         LINE#         625
  C:0AB3H         LINE#         626
  C:0AB3H         LINE#         627
  C:0AC7H         LINE#         628
  C:0AC7H         LINE#         629
  C:0ACCH         LINE#         630
  C:0ADEH         LINE#         631
  C:0AF0H         LINE#         632
  C:0B02H         LINE#         633
  C:0B15H         LINE#         635
  C:0B29H         LINE#         636
  C:0B34H         LINE#         637
  C:0B34H         LINE#         638
  C:0B34H         LINE#         639
  C:0B34H         LINE#         640
  C:0B34H         LINE#         641
  C:0B34H         LINE#         642
  C:0B34H         LINE#         643
  C:0B34H         LINE#         644
  C:0B4DH         LINE#         645
  -------         ENDPROC       PC_PRG
  -------         ENDMOD        UART

  -------         MODULE        IAP_FLASH
  C:0000H         SYMBOL        _ICE_DUMMY_
BL51 BANKED LINKER/LOCATER V6.22.2.0                                                  03/04/2022  11:08:01  PAGE 29


  D:0090H         PUBLIC        P1
  D:00A0H         PUBLIC        P2
  C:1DCAH         PUBLIC        ID_learn
  D:00E7H         PUBLIC        ISPCR
  D:00C0H         PUBLIC        XICON
  D:00B0H         PUBLIC        P3
  D:00E8H         PUBLIC        P4
  D:00F8H         PUBLIC        P5
  D:00F8H         PUBLIC        P6
  B:00A8H.7       PUBLIC        EA
  C:579FH         PUBLIC        _IAP_WriteBuf_With_Protect_Verify
  D:00A8H         PUBLIC        IE
  D:00B8H         PUBLIC        IP0L
  C:6BCCH         PUBLIC        IAP_Erase_All_ID
  C:7632H         PUBLIC        _IAP_WritePPage
  D:00BFH         PUBLIC        CKCON1
  D:00D8H         PUBLIC        CCON
  D:00E6H         PUBLIC        SCMD
  C:7685H         PUBLIC        _IAP_ErasePage
  D:00E3H         PUBLIC        IFADRH
  D:00E5H         PUBLIC        IFMT
  C:5531H         PUBLIC        _Delete_GeneralID_EEPROM
  B:00A0H.1       PUBLIC        P21
  D:00E4H         PUBLIC        IFADRL
  C:698AH         PUBLIC        ID_Login_EXIT_Initial
  D:0088H         PUBLIC        TCON
  B:00A0H.5       PUBLIC        P25
  C:74A9H         PUBLIC        _IAP_Write_Byte
  C:77E7H         SYMBOL        _?ix1000
  C:7810H         PUBLIC        Init_IAP_flash
  C:77EAH         SYMBOL        _?ix1001
  C:77EDH         SYMBOL        _?ix1002
  C:77F0H         SYMBOL        _?ix1003
  C:72FDH         PUBLIC        ALL_ID_EEPROM_Erase
  C:77F3H         SYMBOL        _?ix1004
  C:52BDH         PUBLIC        ID_EEPROM_write
  C:386FH         PUBLIC        eeprom_sys_load
  D:00E2H         PUBLIC        IFD
  C:6E5CH         PUBLIC        _ID_SCX1801_EEPROM_write
  D:0098H         PUBLIC        S0CON
  D:0098H         PUBLIC        S1CON
  D:00C8H         PUBLIC        T2CON
  D:00D0H         PUBLIC        PSW
  -------         PROC          INIT_IAP_FLASH
  C:7810H         LINE#         16
  C:7810H         LINE#         17
  C:7810H         LINE#         19
  C:7813H         LINE#         22
  C:781AH         LINE#         23
  -------         ENDPROC       INIT_IAP_FLASH
  -------         PROC          _IAP_WRITEPPAGE
  D:005CH         SYMBOL        PsfrAddr
  D:005DH         SYMBOL        PsfrData
  -------         DO            
  B:0020H.2       SYMBOL        bEA
  -------         ENDDO         
  C:7632H         LINE#         34
BL51 BANKED LINKER/LOCATER V6.22.2.0                                                  03/04/2022  11:08:01  PAGE 30


  C:7636H         LINE#         35
  C:7636H         LINE#         36
  C:763AH         LINE#         37
  C:763CH         LINE#         38
  C:763FH         LINE#         39
  C:7642H         LINE#         40
  C:7645H         LINE#         41
  C:7648H         LINE#         42
  C:764BH         LINE#         44
  C:764EH         LINE#         46
  C:7651H         LINE#         47
  C:7652H         LINE#         48
  C:7655H         LINE#         49
  C:7658H         LINE#         50
  C:765CH         LINE#         51
  -------         ENDPROC       _IAP_WRITEPPAGE
  -------         PROC          _IAP_ERASEPAGE
  D:0065H         SYMBOL        ByteAddr
  -------         DO            
  B:0020H.3       SYMBOL        bEA
  -------         ENDDO         
  C:7685H         LINE#         92
  C:7687H         LINE#         93
  C:7687H         LINE#         94
  C:768BH         LINE#         95
  C:768EH         LINE#         96
  C:7691H         LINE#         97
  C:7693H         LINE#         98
  C:7696H         LINE#         99
  C:7699H         LINE#         101
  C:769CH         LINE#         103
  C:769FH         LINE#         104
  C:76A0H         LINE#         105
  C:76A3H         LINE#         106
  C:76A6H         LINE#         107
  C:76AAH         LINE#         108
  -------         ENDPROC       _IAP_ERASEPAGE
  -------         PROC          _IAP_WRITEBUF_WITH_PROTECT_VERIFY
  D:0018H         SYMBOL        ByteAddr
  D:001AH         SYMBOL        pBuf
  D:001DH         SYMBOL        Cnt
  -------         DO            
  X:03B5H         SYMBOL        TempBuf
  X:05B5H         SYMBOL        i
  X:05B7H         SYMBOL        ErrCnt
  X:05B8H         SYMBOL        SectorAddr
  B:0020H.4       SYMBOL        bEA
  C:5885H         SYMBOL        Err_Loop
  C:59C1H         SYMBOL        Err_Return
  -------         ENDDO         
  C:579FH         LINE#         123
  C:57A9H         LINE#         124
  C:57A9H         LINE#         129
  C:57ADH         LINE#         131
  C:57AFH         LINE#         132
  C:57B4H         LINE#         134
  C:57C3H         LINE#         135
BL51 BANKED LINKER/LOCATER V6.22.2.0                                                  03/04/2022  11:08:01  PAGE 31


  C:57D9H         LINE#         136
  C:57D9H         LINE#         137
  C:57E0H         LINE#         138
  C:57E7H         LINE#         139
  C:57EAH         LINE#         140
  C:57EDH         LINE#         141
  C:57F0H         LINE#         142
  C:57F3H         LINE#         143
  C:57F6H         LINE#         144
  C:57F9H         LINE#         145
  C:5807H         LINE#         146
  C:581CH         LINE#         147
  C:581FH         LINE#         148
  C:582FH         LINE#         150
  C:583EH         LINE#         151
  C:5844H         LINE#         152
  C:5844H         LINE#         153
  C:5862H         LINE#         154
  C:586DH         LINE#         155
  C:587BH         LINE#         156
  C:5883H         LINE#         157
  C:5885H         LINE#         158
  C:5885H         LINE#         160
  C:5894H         LINE#         161
  C:589BH         LINE#         162
  C:589EH         LINE#         163
  C:58A1H         LINE#         164
  C:58A4H         LINE#         166
  C:58A7H         LINE#         168
  C:58AAH         LINE#         169
  C:58ABH         LINE#         170
  C:58AEH         LINE#         171
  C:58B1H         LINE#         173
  C:58C7H         LINE#         174
  C:58C7H         LINE#         175
  C:58DDH         LINE#         176
  C:58E4H         LINE#         177
  C:58EBH         LINE#         178
  C:58EEH         LINE#         179
  C:58F1H         LINE#         181
  C:58F4H         LINE#         183
  C:58F7H         LINE#         184
  C:58F8H         LINE#         185
  C:58FBH         LINE#         186
  C:58FEH         LINE#         187
  C:590CH         LINE#         188
  C:590FH         LINE#         189
  C:591FH         LINE#         191
  C:592EH         LINE#         192
  C:5944H         LINE#         193
  C:5944H         LINE#         194
  C:594BH         LINE#         195
  C:5952H         LINE#         196
  C:5955H         LINE#         197
  C:5958H         LINE#         199
  C:595BH         LINE#         201
  C:595EH         LINE#         202
BL51 BANKED LINKER/LOCATER V6.22.2.0                                                  03/04/2022  11:08:01  PAGE 32


  C:5961H         LINE#         203
  C:5964H         LINE#         204
  C:5972H         LINE#         205
  C:5975H         LINE#         206
  C:598EH         LINE#         207
  C:598EH         LINE#         208
  C:5994H         LINE#         209
  C:59A6H         LINE#         210
  C:59A6H         LINE#         211
  C:59A9H         LINE#         212
  C:59A9H         LINE#         214
  C:59A9H         LINE#         215
  C:59ABH         LINE#         216
  C:59ABH         LINE#         217
  C:59ABH         LINE#         218
  C:59BCH         LINE#         219
  C:59C1H         LINE#         220
  C:59C1H         LINE#         221
  C:59C5H         LINE#         222
  C:59CAH         LINE#         223
  -------         ENDPROC       _IAP_WRITEBUF_WITH_PROTECT_VERIFY
  -------         PROC          _IAP_WRITE_BYTE
  D:0056H         SYMBOL        Addr
  D:0058H         SYMBOL        wdata
  -------         DO            
  B:0020H.5       SYMBOL        bEA
  -------         ENDDO         
  C:74A9H         LINE#         226
  C:74AFH         LINE#         227
  C:74AFH         LINE#         228
  C:74B3H         LINE#         229
  C:74B5H         LINE#         230
  C:74B8H         LINE#         231
  C:74C2H         LINE#         232
  C:74C9H         LINE#         233
  C:74CCH         LINE#         234
  C:74CFH         LINE#         235
  C:74D2H         LINE#         236
  C:74D5H         LINE#         237
  C:74D6H         LINE#         238
  C:74D9H         LINE#         239
  C:74DCH         LINE#         240
  C:74E0H         LINE#         241
  -------         ENDPROC       _IAP_WRITE_BYTE
  -------         PROC          IAP_ERASE_ALL_ID
  -------         DO            
  X:05BAH         SYMBOL        read_rf
  X:05BBH         SYMBOL        scx1801_id
  -------         ENDDO         
  C:6BCCH         LINE#         244
  C:6BCCH         LINE#         245
  C:6BCCH         LINE#         246
  C:6BD1H         LINE#         247
  C:6BF6H         LINE#         249
  C:6C01H         LINE#         250
  C:6C0CH         LINE#         251
  C:6C17H         LINE#         252
BL51 BANKED LINKER/LOCATER V6.22.2.0                                                  03/04/2022  11:08:01  PAGE 33


  C:6C22H         LINE#         254
  C:6C27H         LINE#         255
  C:6C2AH         LINE#         257
  C:6C2FH         LINE#         258
  C:6C32H         LINE#         260
  C:6C3EH         LINE#         261
  C:6C4AH         LINE#         262
  C:6C56H         LINE#         263
  C:6C62H         LINE#         264
  -------         ENDPROC       IAP_ERASE_ALL_ID
  -------         PROC          EEPROM_SYS_LOAD
  -------         DO            
  I:00B0H         SYMBOL        offset
  I:00B1H         SYMBOL        i
  I:00B3H         SYMBOL        q
  I:00B5H         SYMBOL        p
  I:00B7H         SYMBOL        xm
  I:00BAH         SYMBOL        xn
  -------         ENDDO         
  C:386FH         LINE#         267
  C:386FH         LINE#         268
  C:386FH         LINE#         269
  C:3873H         LINE#         271
  C:3898H         LINE#         274
  C:38A2H         LINE#         275
  C:38ACH         LINE#         276
  C:38B6H         LINE#         277
  C:38BAH         LINE#         278
  C:38C2H         LINE#         279
  C:38CAH         LINE#         280
  C:38D2H         LINE#         281
  C:3904H         LINE#         282
  C:390FH         LINE#         284
  C:3919H         LINE#         285
  C:3923H         LINE#         286
  C:3941H         LINE#         287
  C:3951H         LINE#         288
  C:395BH         LINE#         289
  C:396CH         LINE#         290
  C:3975H         LINE#         291
  C:3984H         LINE#         292
  C:398BH         LINE#         293
  C:39AAH         LINE#         294
  C:39AAH         LINE#         295
  C:39CBH         LINE#         296
  C:39ECH         LINE#         297
  C:3A0DH         LINE#         298
  C:3A11H         LINE#         299
  C:3A19H         LINE#         300
  C:3A21H         LINE#         301
  C:3A29H         LINE#         302
  C:3A4FH         LINE#         303
  C:3A59H         LINE#         306
  C:3A79H         LINE#         307
  C:3A99H         LINE#         308
  C:3AB9H         LINE#         309
  C:3AC1H         LINE#         313
BL51 BANKED LINKER/LOCATER V6.22.2.0                                                  03/04/2022  11:08:01  PAGE 34


  C:3AD1H         LINE#         314
  C:3AD1H         LINE#         315
  C:3AD4H         LINE#         316
  C:3ADFH         LINE#         318
  C:3AE9H         LINE#         319
  C:3B13H         LINE#         320
  C:3B13H         LINE#         321
  C:3B1CH         LINE#         322
  C:3B42H         LINE#         323
  C:3B59H         LINE#         325
  C:3B7FH         LINE#         326
  C:3B96H         LINE#         328
  C:3BBCH         LINE#         329
  C:3BD3H         LINE#         331
  C:3BF9H         LINE#         332
  C:3C10H         LINE#         334
  C:3C36H         LINE#         335
  C:3C4DH         LINE#         336
  C:3C4EH         LINE#         337
  C:3C79H         LINE#         338
  C:3C79H         LINE#         339
  C:3C82H         LINE#         340
  C:3C88H         LINE#         341
  C:3CB3H         LINE#         342
  C:3CCAH         LINE#         344
  C:3CF5H         LINE#         345
  C:3D0CH         LINE#         347
  C:3D37H         LINE#         348
  C:3D4EH         LINE#         350
  C:3D79H         LINE#         351
  C:3D90H         LINE#         353
  C:3DBBH         LINE#         354
  C:3DD2H         LINE#         355
  C:3DD2H         LINE#         356
  C:3DD2H         LINE#         357
  -------         ENDPROC       EEPROM_SYS_LOAD
  -------         PROC          ID_EEPROM_WRITE
  -------         DO            
  I:0090H         SYMBOL        xm
  I:0093H         SYMBOL        i
  I:0095H         SYMBOL        j
  I:0097H         SYMBOL        m1
  I:0099H         SYMBOL        xn
  I:009DH         SYMBOL        xd
  -------         ENDDO         
  C:52BDH         LINE#         359
  C:52BDH         LINE#         360
  C:52BDH         LINE#         361
  C:52E2H         LINE#         364
  C:52F0H         LINE#         365
  C:5300H         LINE#         366
  C:530EH         LINE#         368
  C:5321H         LINE#         371
  C:5361H         LINE#         372
  C:53A1H         LINE#         373
  C:53DCH         LINE#         377
  C:53EFH         LINE#         379
BL51 BANKED LINKER/LOCATER V6.22.2.0                                                  03/04/2022  11:08:01  PAGE 35


  C:5406H         LINE#         380
  C:5406H         LINE#         381
  C:541BH         LINE#         382
  C:5432H         LINE#         383
  C:543AH         LINE#         384
  C:5451H         LINE#         385
  C:5459H         LINE#         386
  C:5470H         LINE#         387
  C:5474H         LINE#         388
  C:547CH         LINE#         389
  C:5484H         LINE#         390
  C:548CH         LINE#         391
  C:54B2H         LINE#         392
  C:54B4H         LINE#         393
  C:54B7H         LINE#         394
  C:54C2H         LINE#         396
  C:54CAH         LINE#         397
  C:54D2H         LINE#         398
  C:54DAH         LINE#         399
  C:54F0H         LINE#         401
  C:550EH         LINE#         403
  C:551FH         LINE#         404
  C:551FH         LINE#         405
  C:5522H         LINE#         406
  C:5527H         LINE#         407
  C:5530H         LINE#         408
  C:5530H         LINE#         409
  -------         ENDPROC       ID_EEPROM_WRITE
  -------         PROC          ID_LOGIN_EXIT_INITIAL
  C:698AH         LINE#         411
  C:698AH         LINE#         412
  C:698AH         LINE#         414
  C:69A0H         LINE#         415
  C:69A0H         LINE#         416
  C:69ABH         LINE#         417
  C:69B6H         LINE#         418
  C:69C1H         LINE#         419
  C:69C3H         LINE#         420
  C:69DBH         LINE#         421
  C:69DBH         LINE#         422
  C:69E6H         LINE#         423
  C:69F1H         LINE#         424
  C:69F1H         LINE#         425
  C:69F4H         LINE#         426
  C:6A02H         LINE#         427
  C:6A10H         LINE#         428
  C:6A1EH         LINE#         429
  C:6A2CH         LINE#         430
  C:6A3AH         LINE#         431
  C:6A48H         LINE#         432
  C:6A4AH         LINE#         433
  C:6A4FH         LINE#         443
  -------         ENDPROC       ID_LOGIN_EXIT_INITIAL
  -------         PROC          _ID_SCX1801_EEPROM_WRITE
  D:003BH         SYMBOL        id
  -------         DO            
  I:00C6H         SYMBOL        xm
BL51 BANKED LINKER/LOCATER V6.22.2.0                                                  03/04/2022  11:08:01  PAGE 36


  I:00C9H         SYMBOL        xn
  -------         ENDDO         
  C:6E5CH         LINE#         445
  C:6E64H         LINE#         446
  C:6E64H         LINE#         447
  C:6E89H         LINE#         450
  C:6E96H         LINE#         451
  C:6EA4H         LINE#         452
  C:6EACH         LINE#         453
  C:6EB4H         LINE#         454
  C:6EBCH         LINE#         455
  C:6ECFH         LINE#         456
  -------         ENDPROC       _ID_SCX1801_EEPROM_WRITE
  -------         PROC          _DELETE_GENERALID_EEPROM
  D:003FH         SYMBOL        id
  -------         DO            
  I:00A1H         SYMBOL        i
  I:00A3H         SYMBOL        j
  I:00A5H         SYMBOL        m2
  I:00A7H         SYMBOL        original_pcs
  I:00A9H         SYMBOL        xm
  I:00ACH         SYMBOL        xn
  -------         ENDDO         
  C:5531H         LINE#         458
  C:5539H         LINE#         459
  C:5539H         LINE#         460
  C:5540H         LINE#         461
  C:5565H         LINE#         464
  C:5574H         LINE#         465
  C:5594H         LINE#         466
  C:5594H         LINE#         468
  C:55E1H         LINE#         469
  C:55E1H         LINE#         470
  C:5608H         LINE#         471
  C:5608H         LINE#         472
  C:5640H         LINE#         473
  C:5678H         LINE#         474
  C:56B0H         LINE#         475
  C:56B3H         LINE#         476
  C:56BEH         LINE#         477
  C:56CCH         LINE#         478
  C:56D8H         LINE#         479
  C:56D8H         LINE#         480
  C:56DCH         LINE#         482
  C:56DCH         LINE#         483
  C:56DCH         LINE#         500
  C:56DFH         LINE#         501
  C:56EAH         LINE#         503
  C:56FAH         LINE#         504
  C:5708H         LINE#         505
  C:571BH         LINE#         507
  C:5737H         LINE#         508
  C:5737H         LINE#         510
  C:5746H         LINE#         514
  C:574EH         LINE#         515
  C:5756H         LINE#         516
  C:575EH         LINE#         517
BL51 BANKED LINKER/LOCATER V6.22.2.0                                                  03/04/2022  11:08:01  PAGE 37


  C:5773H         LINE#         518
  C:5791H         LINE#         519
  C:5794H         LINE#         520
  C:579EH         LINE#         521
  -------         ENDPROC       _DELETE_GENERALID_EEPROM
  -------         PROC          ALL_ID_EEPROM_ERASE
  -------         DO            
  I:00D2H         SYMBOL        i
  -------         ENDDO         
  C:72FDH         LINE#         523
  C:72FDH         LINE#         524
  C:72FDH         LINE#         527
  C:7305H         LINE#         530
  C:7319H         LINE#         534
  C:7319H         LINE#         535
  C:732CH         LINE#         536
  C:732FH         LINE#         537
  C:7339H         LINE#         538
  C:733CH         LINE#         539
  -------         ENDPROC       ALL_ID_EEPROM_ERASE
  -------         PROC          ID_LEARN
  C:1DCAH         LINE#         541
  C:1DCAH         LINE#         542
  C:1DCAH         LINE#         545
  C:1DD6H         LINE#         546
  C:1DD6H         LINE#         547
  C:1DE4H         LINE#         548
  C:1DF0H         LINE#         549
  C:1E00H         LINE#         550
  C:1E05H         LINE#         551
  C:1E0DH         LINE#         552
  C:1E13H         LINE#         553
  C:1E1FH         LINE#         554
  C:1E2DH         LINE#         555
  C:1E35H         LINE#         556
  C:1E3BH         LINE#         557
  C:1E47H         LINE#         558
  C:1E55H         LINE#         559
  C:1E61H         LINE#         560
  C:1E6FH         LINE#         561
  C:1E7BH         LINE#         562
  C:1E89H         LINE#         563
  C:1E91H         LINE#         564
  C:1E97H         LINE#         565
  C:1EA3H         LINE#         566
  C:1EB1H         LINE#         567
  C:1EBDH         LINE#         568
  C:1ECBH         LINE#         569
  C:1ED7H         LINE#         570
  C:1EE5H         LINE#         571
  C:1EF1H         LINE#         572
  C:1EFFH         LINE#         573
  C:1F0BH         LINE#         574
  C:1F1BH         LINE#         575
  C:1F5CH         LINE#         578
  C:1F5CH         LINE#         579
  C:1F64H         LINE#         580
BL51 BANKED LINKER/LOCATER V6.22.2.0                                                  03/04/2022  11:08:01  PAGE 38


  C:1F69H         LINE#         581
  C:1F69H         LINE#         583
  C:1F6FH         LINE#         584
  C:1F6FH         LINE#         585
  C:1F8EH         LINE#         586
  C:1F98H         LINE#         587
  C:1FE5H         LINE#         588
  C:1FE5H         LINE#         589
  C:1FF3H         LINE#         590
  C:1FFEH         LINE#         591
  C:2009H         LINE#         592
  C:200FH         LINE#         593
  C:2019H         LINE#         594
  C:2023H         LINE#         595
  C:2025H         LINE#         596
  C:2088H         LINE#         599
  C:2088H         LINE#         600
  C:2094H         LINE#         601
  C:2097H         LINE#         602
  C:2097H         LINE#         603
  C:2097H         LINE#         604
  C:209AH         LINE#         605
  C:209AH         LINE#         606
  C:20ABH         LINE#         607
  C:20ABH         LINE#         608
  C:20BDH         LINE#         609
  C:20C3H         LINE#         610
  C:20C3H         LINE#         611
  C:20D8H         LINE#         612
  C:20D8H         LINE#         613
  C:20E6H         LINE#         614
  C:20EBH         LINE#         615
  C:20EBH         LINE#         616
  C:20F3H         LINE#         617
  C:20F3H         LINE#         618
  C:2104H         LINE#         619
  C:2104H         LINE#         620
  C:2112H         LINE#         621
  C:2120H         LINE#         622
  C:2128H         LINE#         623
  C:212BH         LINE#         624
  C:2139H         LINE#         625
  C:2142H         LINE#         626
  C:214CH         LINE#         627
  C:2151H         LINE#         628
  C:215BH         LINE#         629
  C:215EH         LINE#         630
  C:2192H         LINE#         631
  C:2192H         LINE#         633
  C:21A0H         LINE#         634
  C:21AEH         LINE#         635
  C:21B9H         LINE#         636
  C:21C4H         LINE#         637
  C:21CFH         LINE#         638
  C:21D5H         LINE#         639
  C:21DFH         LINE#         640
  C:21E9H         LINE#         641
BL51 BANKED LINKER/LOCATER V6.22.2.0                                                  03/04/2022  11:08:01  PAGE 39


  C:21E9H         LINE#         642
  C:2206H         LINE#         643
  C:2206H         LINE#         644
  C:2219H         LINE#         645
  C:2219H         LINE#         646
  C:2227H         LINE#         647
  C:2231H         LINE#         648
  C:2234H         LINE#         649
  C:2236H         LINE#         650
  C:224BH         LINE#         651
  C:224BH         LINE#         652
  C:2259H         LINE#         653
  C:2262H         LINE#         654
  C:2265H         LINE#         655
  C:2265H         LINE#         656
  C:2265H         LINE#         657
  C:22A7H         LINE#         658
  C:22A7H         LINE#         659
  C:22B5H         LINE#         660
  C:22C6H         LINE#         661
  C:22C6H         LINE#         662
  C:22CEH         LINE#         663
  C:22DFH         LINE#         664
  C:22E3H         LINE#         666
  C:22E5H         LINE#         667
  C:22E5H         LINE#         668
  C:2319H         LINE#         669
  C:2319H         LINE#         670
  C:2359H         LINE#         671
  C:2367H         LINE#         672
  C:237BH         LINE#         673
  C:237BH         LINE#         674
  C:2389H         LINE#         675
  C:2397H         LINE#         676
  C:23A5H         LINE#         677
  C:23B3H         LINE#         678
  C:23B6H         LINE#         679
  C:23C7H         LINE#         680
  C:23DFH         LINE#         681
  C:23DFH         LINE#         682
  C:23EDH         LINE#         683
  C:23FEH         LINE#         684
  C:23FEH         LINE#         685
  C:2401H         LINE#         686
  C:2404H         LINE#         688
  C:2404H         LINE#         689
  C:241CH         LINE#         690
  C:242DH         LINE#         692
  C:242DH         LINE#         693
  C:2430H         LINE#         694
  C:243AH         LINE#         695
  C:246EH         LINE#         696
  C:246EH         LINE#         697
  C:248AH         LINE#         698
  C:249EH         LINE#         699
  C:24A1H         LINE#         700
  C:24A4H         LINE#         701
BL51 BANKED LINKER/LOCATER V6.22.2.0                                                  03/04/2022  11:08:01  PAGE 40


  C:24BDH         LINE#         702
  C:24BDH         LINE#         703
  C:24D4H         LINE#         704
  C:24D4H         LINE#         705
  C:24E2H         LINE#         706
  C:24EAH         LINE#         707
  C:24EDH         LINE#         708
  C:24F7H         LINE#         709
  C:2502H         LINE#         710
  C:251EH         LINE#         711
  C:252FH         LINE#         712
  C:2531H         LINE#         713
  C:254DH         LINE#         714
  C:2550H         LINE#         715
  C:2550H         LINE#         716
  C:2550H         LINE#         717
  C:2550H         LINE#         718
  C:2550H         LINE#         719
  C:255CH         LINE#         720
  C:256BH         LINE#         722
  C:256EH         LINE#         723
  C:256EH         LINE#         724
  C:256EH         LINE#         726
  -------         ENDPROC       ID_LEARN
  -------         ENDMOD        IAP_FLASH

  -------         MODULE        SPI
  C:0000H         SYMBOL        _ICE_DUMMY_
  D:0090H         PUBLIC        P1
  D:00A0H         PUBLIC        P2
  D:00C0H         PUBLIC        XICON
  D:00B0H         PUBLIC        P3
  D:00E8H         PUBLIC        P4
  D:00F8H         PUBLIC        P5
  D:0085H         PUBLIC        SPCON
  D:00F8H         PUBLIC        P6
  D:00A8H         PUBLIC        IE
  D:00B8H         PUBLIC        IP0L
  C:76ABH         PUBLIC        Init_Spi
  D:00D8H         PUBLIC        CCON
  C:6F9AH         PUBLIC        _ML7345_Read_Fifo
  B:0090H.4       PUBLIC        P14
  D:0088H         PUBLIC        TCON
  C:6D6EH         PUBLIC        _ML7345_Write_Fifo
  C:7436H         PUBLIC        _ML7345_Read_Reg
  C:7545H         PUBLIC        _ML7345_Write_Reg
  D:0084H         PUBLIC        SPSTAT
  D:0098H         PUBLIC        S0CON
  D:0098H         PUBLIC        S1CON
  D:00C8H         PUBLIC        T2CON
  D:00A2H         PUBLIC        AUXR1
  C:7747H         PUBLIC        _SPI1_SendRecv_Data
  D:00D0H         PUBLIC        PSW
  D:0086H         PUBLIC        SPDAT
  -------         PROC          INIT_SPI
  C:76ABH         LINE#         4
  C:76ABH         LINE#         5
BL51 BANKED LINKER/LOCATER V6.22.2.0                                                  03/04/2022  11:08:01  PAGE 41


  C:76ABH         LINE#         7
  C:76AEH         LINE#         9
  C:76B1H         LINE#         11
  C:76BEH         LINE#         13
  C:76C1H         LINE#         15
  C:76C4H         LINE#         17
  C:76C7H         LINE#         19
  C:76CAH         LINE#         21
  C:76CCH         LINE#         22
  -------         ENDPROC       INIT_SPI
  -------         PROC          _SPI1_SENDRECV_DATA
  D:0066H         SYMBOL        SPI_DATA
  C:7747H         LINE#         31
  C:7749H         LINE#         32
  C:7749H         LINE#         33
  C:774EH         LINE#         34
  C:7751H         LINE#         35
  C:775CH         LINE#         36
  C:775FH         LINE#         37
  C:7761H         LINE#         38
  -------         ENDPROC       _SPI1_SENDRECV_DATA
  -------         PROC          _ML7345_WRITE_REG
  D:005EH         SYMBOL        addr
  D:005FH         SYMBOL        dat
  C:7545H         LINE#         41
  C:7549H         LINE#         42
  C:7549H         LINE#         43
  C:754EH         LINE#         44
  C:7550H         LINE#         45
  C:7555H         LINE#         47
  C:755FH         LINE#         48
  C:7564H         LINE#         49
  C:7569H         LINE#         51
  C:756EH         LINE#         52
  C:7570H         LINE#         53
  C:7575H         LINE#         54
  -------         ENDPROC       _ML7345_WRITE_REG
  -------         PROC          _ML7345_READ_REG
  D:0067H         SYMBOL        addr
  -------         DO            
  X:06E4H         SYMBOL        read
  -------         ENDDO         
  C:7436H         LINE#         56
  C:7438H         LINE#         57
  C:7438H         LINE#         58
  C:743DH         LINE#         59
  C:7442H         LINE#         60
  C:7444H         LINE#         61
  C:7449H         LINE#         63
  C:744FH         LINE#         64
  C:7454H         LINE#         65
  C:745EH         LINE#         67
  C:7463H         LINE#         68
  C:7465H         LINE#         69
  C:746AH         LINE#         71
  C:746FH         LINE#         72
  -------         ENDPROC       _ML7345_READ_REG
BL51 BANKED LINKER/LOCATER V6.22.2.0                                                  03/04/2022  11:08:01  PAGE 42


  -------         PROC          _ML7345_WRITE_FIFO
  D:0028H         SYMBOL        addr
  D:0029H         SYMBOL        pbuf
  D:002CH         SYMBOL        len
  -------         DO            
  X:06E5H         SYMBOL        i
  -------         ENDDO         
  C:6D6EH         LINE#         74
  C:6D76H         LINE#         75
  C:6D76H         LINE#         76
  C:6D7BH         LINE#         77
  C:6D80H         LINE#         78
  C:6D82H         LINE#         79
  C:6D87H         LINE#         81
  C:6D91H         LINE#         82
  C:6D96H         LINE#         83
  C:6DA3H         LINE#         84
  C:6DB4H         LINE#         85
  C:6DB4H         LINE#         86
  C:6DB9H         LINE#         87
  C:6DD0H         LINE#         88
  C:6DD8H         LINE#         90
  C:6DDDH         LINE#         91
  C:6DDFH         LINE#         92
  C:6DE4H         LINE#         93
  -------         ENDPROC       _ML7345_WRITE_FIFO
  -------         PROC          _ML7345_READ_FIFO
  D:002DH         SYMBOL        addr
  D:002EH         SYMBOL        pbuf
  D:0031H         SYMBOL        len
  -------         DO            
  X:06E6H         SYMBOL        i
  -------         ENDDO         
  C:6F9AH         LINE#         95
  C:6FA2H         LINE#         96
  C:6FA2H         LINE#         97
  C:6FA7H         LINE#         98
  C:6FACH         LINE#         99
  C:6FAEH         LINE#         100
  C:6FB3H         LINE#         102
  C:6FB9H         LINE#         103
  C:6FBEH         LINE#         105
  C:6FCEH         LINE#         106
  C:6FCEH         LINE#         107
  C:6FE7H         LINE#         108
  C:6FEFH         LINE#         110
  C:6FF4H         LINE#         111
  C:6FF6H         LINE#         112
  C:6FFBH         LINE#         113
  -------         ENDPROC       _ML7345_READ_FIFO
  -------         ENDMOD        SPI

  -------         MODULE        RAM
  C:0000H         SYMBOL        _ICE_DUMMY_
  X:0000H         PUBLIC        write_flash_buffer
  X:0008H         PUBLIC        TIME_Receiver_Login_restrict
  X:000AH         PUBLIC        Tx_Rx_mode
BL51 BANKED LINKER/LOCATER V6.22.2.0                                                  03/04/2022  11:08:01  PAGE 43


  X:000BH         PUBLIC        ERROR_Read_sendTX_packet
  X:000CH         PUBLIC        COUNT_Receiver_Login
  X:000DH         PUBLIC        ID_Receiver_Login
  X:0011H         PUBLIC        TIME_auto_out
  X:0013H         PUBLIC        TIMER_Semi_open
  X:0015H         PUBLIC        TIME_Login_EXIT_Button
  X:0017H         PUBLIC        Time_error_read_timeout
  X:0019H         PUBLIC        Manual_override_TIMER
  X:001BH         PUBLIC        Time_APP_RXstart
  X:001CH         PUBLIC        TIME_APP_TX_fromOUT
  X:001EH         PUBLIC        Last_Uart_Struct_DATA_Packet_Contro
  X:0027H         PUBLIC        SIO_cnt
  X:0028H         PUBLIC        TIME_ID_SCX1801_Login
  X:002AH         PUBLIC        FLAG__Semi_close_T
  X:002BH         PUBLIC        Uart_Struct_DATA_Packet_Contro
  X:0034H         PUBLIC        Struct_DATA_Packet_Contro
  I:006EH         PUBLIC        mark0_stu
  I:006FH         PUBLIC        mark1_stu
  X:003DH         PUBLIC        DATA_Packet_Control
  X:003EH         PUBLIC        X_ERR
  X:0040H         PUBLIC        ID_SCX1801_DATA
  X:0044H         PUBLIC        ID_Receiver_DATA
  X:0344H         PUBLIC        TIMER250ms_STOP
  X:0346H         PUBLIC        PROFILE_CH_FREQ_32bit_200002EC
  X:034AH         PUBLIC        X_ERRTimer
  X:034CH         PUBLIC        TIME_Receiver_Login
  X:034EH         PUBLIC        TIMER1s
  X:0350H         PUBLIC        time_Login_exit_256
  X:0352H         PUBLIC        DEF_APP_TX_freq
  I:0070H         PUBLIC        Channels
  X:0353H         PUBLIC        ERROR_Read_sendTX_count
  X:0354H         PUBLIC        Flag_ERROR_Read_once_again
  X:0355H         PUBLIC        FLAG__Semi_open_T
  X:0356H         PUBLIC        Time_error_read_gap
  X:0357H         PUBLIC        Struct_DATA_Packet_Contro_buf
  X:0360H         PUBLIC        FLAG_test
  X:0361H         PUBLIC        TIME_Receiver_Login_led
  X:0363H         PUBLIC        Struct_DATA_Packet_Contro_fno
  X:0364H         PUBLIC        RAM_RSSI_AVG
  X:0366H         PUBLIC        X_COUNT
  X:0368H         PUBLIC        DATA_Packet_ID
  X:036CH         PUBLIC        TIME_auto_close
  X:036EH         PUBLIC        TIME_Login_EXIT_rest
  X:0370H         PUBLIC        FLAG0
  X:0371H         PUBLIC        Time_APP_blank_TX
  X:0372H         PUBLIC        FLAG1
  X:0373H         PUBLIC        FLAG2
  I:0071H         PUBLIC        TIMER18ms
  X:0374H         PUBLIC        FLAG3
  X:0375H         PUBLIC        DATA_Packet_Contro_buf
  X:0376H         PUBLIC        ID_DATA_PCS
  I:0073H         PUBLIC        TIME_10ms
  X:0378H         PUBLIC        Send_err_com
  X:037FH         PUBLIC        TIME_power_led
  I:0074H         PUBLIC        CONST_TXPACKET_DATA_20000AF0
  X:0381H         PUBLIC        RAM_RSSI_SUM
  X:0385H         PUBLIC        TIME_Receiver_LED_OUT
BL51 BANKED LINKER/LOCATER V6.22.2.0                                                  03/04/2022  11:08:01  PAGE 44


  X:0387H         PUBLIC        TIME_TestNo91
  X:0389H         PUBLIC        Time_rf_init
  X:038BH         PUBLIC        RSSI_Read_Counter
  X:038CH         PUBLIC        TIME_ERROR_Read_once_again
  X:038DH         PUBLIC        SIO_DATA
  X:039DH         PUBLIC        X_ERR_CNT
  X:039EH         PUBLIC        retx_cnt
  X:039FH         PUBLIC        TIMER_Semi_close
  X:03A1H         PUBLIC        FLAG_test1
  X:03A2H         PUBLIC        SIO_buff
  X:03B2H         PUBLIC        TIME_OUT_OPEN_CLOSE
  X:03B3H         PUBLIC        TIMER300ms
  B:0020H.6       PUBLIC        Flag_TX_ID_load
  -------         ENDMOD        RAM

  -------         MODULE        ID_DECODE
  C:0000H         SYMBOL        _ICE_DUMMY_
  D:0090H         PUBLIC        P1
  D:00A0H         PUBLIC        P2
  D:00C0H         PUBLIC        XICON
  D:00B0H         PUBLIC        P3
  D:00E8H         PUBLIC        P4
  C:2CFEH         PUBLIC        ID_Decode_IDCheck
  D:00F8H         PUBLIC        P5
  C:466FH         PUBLIC        _Signal_DATA_Decode
  D:00F8H         PUBLIC        P6
  D:00A8H         PUBLIC        IE
  C:0B4EH         PUBLIC        ID_Decode_OUT
  D:00B8H         PUBLIC        IP0L
  D:00D8H         PUBLIC        CCON
  B:0090H.0       PUBLIC        P10
  B:0090H.1       PUBLIC        P11
  B:0090H.2       PUBLIC        P12
  D:0088H         PUBLIC        TCON
  B:00A0H.5       PUBLIC        P25
  C:71E9H         PUBLIC        Receiver_BEEP
  C:7058H         PUBLIC        TEST_beep
  D:0098H         PUBLIC        S0CON
  D:0098H         PUBLIC        S1CON
  C:68B3H         PUBLIC        _BEEP_Module
  D:00C8H         PUBLIC        T2CON
  C:765DH         PUBLIC        BEEP_and_LED
  C:6F36H         PUBLIC        _Return_ID_DATA
  D:00D0H         PUBLIC        PSW
  C:59CBH         PUBLIC        eeprom_IDcheck
  -------         PROC          ID_DECODE_IDCHECK
  C:2CFEH         LINE#         19
  C:2CFEH         LINE#         20
  C:2CFEH         LINE#         22
  C:2D0AH         LINE#         23
  C:2D0AH         LINE#         24
  C:2D18H         LINE#         25
  C:2D2CH         LINE#         26
  C:2D3EH         LINE#         27
  C:2D56H         LINE#         28
  C:2D56H         LINE#         29
  C:2D60H         LINE#         30
BL51 BANKED LINKER/LOCATER V6.22.2.0                                                  03/04/2022  11:08:01  PAGE 45


  C:2D63H         LINE#         31
  C:2DA5H         LINE#         32
  C:2DA5H         LINE#         33
  C:2DFEH         LINE#         34
  C:2DFEH         LINE#         35
  C:2E5FH         LINE#         36
  C:2E5FH         LINE#         37
  C:2E6DH         LINE#         38
  C:2E81H         LINE#         39
  C:2E81H         LINE#         40
  C:2E81H         LINE#         41
  C:2E82H         LINE#         42
  C:2EB9H         LINE#         43
  C:2EB9H         LINE#         44
  C:2EC7H         LINE#         45
  C:2ED7H         LINE#         46
  C:2ED7H         LINE#         47
  C:2EF3H         LINE#         48
  C:2EFDH         LINE#         50
  C:2F2CH         LINE#         51
  C:2F2CH         LINE#         52
  C:2F2EH         LINE#         53
  C:2F33H         LINE#         54
  C:2F4BH         LINE#         55
  C:2F4BH         LINE#         56
  C:2F4EH         LINE#         57
  C:2F5BH         LINE#         58
  C:2F5BH         LINE#         59
  C:2F73H         LINE#         60
  C:2F82H         LINE#         61
  C:2F96H         LINE#         62
  C:2F96H         LINE#         63
  C:2F99H         LINE#         64
  C:2FADH         LINE#         65
  C:2FB0H         LINE#         66
  C:2FB0H         LINE#         67
  C:2FB1H         LINE#         68
  C:2FBFH         LINE#         69
  C:2FBFH         LINE#         70
  C:2FDAH         LINE#         71
  C:2FDAH         LINE#         72
  C:2FE8H         LINE#         73
  C:2FEBH         LINE#         74
  C:300DH         LINE#         75
  C:300DH         LINE#         76
  C:3017H         LINE#         77
  C:3022H         LINE#         79
  C:3038H         LINE#         80
  C:3038H         LINE#         81
  C:3043H         LINE#         82
  C:3054H         LINE#         83
  C:3065H         LINE#         84
  C:3065H         LINE#         93
  C:3066H         LINE#         95
  C:3066H         LINE#         96
  C:3077H         LINE#         97
  C:3077H         LINE#         98
BL51 BANKED LINKER/LOCATER V6.22.2.0                                                  03/04/2022  11:08:01  PAGE 46


  C:3077H         LINE#         99
  C:3077H         LINE#         100
  C:3077H         LINE#         101
  C:3078H         LINE#         103
  C:3078H         LINE#         104
  C:307AH         LINE#         105
  C:3093H         LINE#         106
  C:3093H         LINE#         107
  C:30A1H         LINE#         108
  C:30ABH         LINE#         109
  C:30C5H         LINE#         110
  C:30C5H         LINE#         111
  C:30D3H         LINE#         112
  C:30DDH         LINE#         113
  C:30DDH         LINE#         114
  C:30E0H         LINE#         115
  C:30F0H         LINE#         118
  C:30F0H         LINE#         119
  C:30FEH         LINE#         120
  C:3106H         LINE#         121
  C:3114H         LINE#         122
  C:312BH         LINE#         123
  C:3135H         LINE#         124
  C:3146H         LINE#         125
  C:3146H         LINE#         126
  C:3152H         LINE#         127
  C:315CH         LINE#         128
  C:315EH         LINE#         129
  C:3177H         LINE#         130
  C:3181H         LINE#         131
  C:3181H         LINE#         132
  C:318BH         LINE#         134
  C:3199H         LINE#         135
  C:3199H         LINE#         136
  C:319AH         LINE#         137
  C:31AAH         LINE#         138
  C:31AAH         LINE#         139
  C:31AFH         LINE#         140
  C:31C3H         LINE#         141
  C:31DEH         LINE#         142
  C:320DH         LINE#         143
  C:3232H         LINE#         144
  C:323CH         LINE#         145
  C:326FH         LINE#         146
  C:328AH         LINE#         147
  C:328CH         LINE#         148
  C:3296H         LINE#         149
  C:32A4H         LINE#         150
  C:32ADH         LINE#         151
  C:32BBH         LINE#         152
  C:32BBH         LINE#         153
  C:32BBH         LINE#         156
  C:32BBH         LINE#         157
  C:32BBH         LINE#         158
  -------         ENDPROC       ID_DECODE_IDCHECK
  -------         PROC          _SIGNAL_DATA_DECODE
  D:0068H         SYMBOL        NUM_Type
BL51 BANKED LINKER/LOCATER V6.22.2.0                                                  03/04/2022  11:08:01  PAGE 47


  -------         DO            
  X:06BEH         SYMBOL        data_in
  X:06C2H         SYMBOL        data_out
  X:06C4H         SYMBOL        data_NRZ
  X:06D2H         SYMBOL        i
  X:06D3H         SYMBOL        j
  X:06D4H         SYMBOL        i_value
  -------         ENDDO         
  C:466FH         LINE#         160
  C:4671H         LINE#         161
  C:4671H         LINE#         167
  C:468BH         LINE#         168
  C:469BH         LINE#         169
  C:46B2H         LINE#         170
  C:46B2H         LINE#         171
  C:46C4H         LINE#         172
  C:46EAH         LINE#         174
  C:470EH         LINE#         175
  C:4716H         LINE#         176
  C:472FH         LINE#         177
  C:4746H         LINE#         178
  C:4746H         LINE#         179
  C:475DH         LINE#         180
  C:4781H         LINE#         181
  C:478FH         LINE#         182
  C:47A8H         LINE#         183
  C:47B0H         LINE#         184
  C:47CEH         LINE#         185
  C:47D7H         LINE#         186
  C:47ECH         LINE#         187
  C:47ECH         LINE#         188
  C:4815H         LINE#         189
  C:4815H         LINE#         190
  C:4823H         LINE#         191
  C:4860H         LINE#         192
  C:487CH         LINE#         193
  C:488AH         LINE#         194
  C:489DH         LINE#         195
  C:489EH         LINE#         197
  C:48ACH         LINE#         198
  C:48ADH         LINE#         199
  C:48BAH         LINE#         200
  C:48BAH         LINE#         201
  C:491BH         LINE#         202
  C:491BH         LINE#         203
  C:4929H         LINE#         204
  C:4966H         LINE#         205
  C:4982H         LINE#         206
  C:4990H         LINE#         207
  C:49A3H         LINE#         208
  C:49BAH         LINE#         209
  C:49EEH         LINE#         210
  C:49EFH         LINE#         212
  C:49FDH         LINE#         213
  C:49FDH         LINE#         214
  -------         ENDPROC       _SIGNAL_DATA_DECODE
  -------         PROC          EEPROM_IDCHECK
BL51 BANKED LINKER/LOCATER V6.22.2.0                                                  03/04/2022  11:08:01  PAGE 48


  -------         DO            
  X:06D5H         SYMBOL        i
  -------         ENDDO         
  C:59CBH         LINE#         216
  C:59CBH         LINE#         217
  C:59CBH         LINE#         219
  C:59D8H         LINE#         220
  C:59D8H         LINE#         221
  C:59E6H         LINE#         222
  C:59F0H         LINE#         223
  C:59F0H         LINE#         225
  C:5A00H         LINE#         226
  C:5A00H         LINE#         227
  C:5A08H         LINE#         229
  C:5A08H         LINE#         231
  C:5A27H         LINE#         235
  C:5A27H         LINE#         236
  C:5A37H         LINE#         237
  C:5A45H         LINE#         238
  C:5A5EH         LINE#         239
  C:5A90H         LINE#         240
  C:5A92H         LINE#         241
  C:5AB4H         LINE#         242
  C:5AB4H         LINE#         243
  C:5AC4H         LINE#         244
  C:5AD2H         LINE#         245
  C:5ADCH         LINE#         246
  C:5ADCH         LINE#         247
  C:5B09H         LINE#         248
  C:5B09H         LINE#         249
  C:5B19H         LINE#         250
  C:5B27H         LINE#         251
  C:5B31H         LINE#         252
  C:5B31H         LINE#         253
  C:5B3FH         LINE#         254
  C:5B59H         LINE#         255
  C:5B5AH         LINE#         256
  C:5B89H         LINE#         257
  C:5B89H         LINE#         258
  C:5B97H         LINE#         259
  C:5BBCH         LINE#         260
  C:5BBCH         LINE#         286
  -------         ENDPROC       EEPROM_IDCHECK
  -------         PROC          _BEEP_MODULE
  D:0043H         SYMBOL        time_beepON
  D:0045H         SYMBOL        time_beepOFF
  -------         DO            
  I:00D4H         SYMBOL        i
  -------         ENDDO         
  C:68B3H         LINE#         288
  C:68BBH         LINE#         289
  C:68BBH         LINE#         292
  C:68D2H         LINE#         293
  C:68D2H         LINE#         294
  C:68E8H         LINE#         295
  C:68E8H         LINE#         296
  C:68F6H         LINE#         297
BL51 BANKED LINKER/LOCATER V6.22.2.0                                                  03/04/2022  11:08:01  PAGE 49


  C:6904H         LINE#         298
  C:6907H         LINE#         299
  C:6907H         LINE#         300
  C:690CH         LINE#         301
  C:6911H         LINE#         302
  C:6916H         LINE#         303
  C:6919H         LINE#         304
  C:6923H         LINE#         305
  C:693AH         LINE#         306
  C:693AH         LINE#         307
  C:694EH         LINE#         308
  C:694EH         LINE#         309
  C:695CH         LINE#         310
  C:696AH         LINE#         311
  C:696DH         LINE#         312
  C:696DH         LINE#         313
  C:6972H         LINE#         314
  C:6977H         LINE#         315
  C:697CH         LINE#         316
  C:697FH         LINE#         317
  C:6989H         LINE#         319
  -------         ENDPROC       _BEEP_MODULE
  -------         PROC          BEEP_AND_LED
  C:765DH         LINE#         321
  C:765DH         LINE#         322
  C:765DH         LINE#         323
  C:765FH         LINE#         324
  C:766AH         LINE#         325
  C:7678H         LINE#         326
  C:767BH         LINE#         327
  C:7684H         LINE#         328
  -------         ENDPROC       BEEP_AND_LED
  -------         PROC          RECEIVER_BEEP
  -------         DO            
  I:00D6H         SYMBOL        j
  -------         ENDDO         
  C:71E9H         LINE#         330
  C:71E9H         LINE#         331
  C:71E9H         LINE#         333
  C:71F8H         LINE#         334
  C:71F8H         LINE#         335
  C:7206H         LINE#         336
  C:721DH         LINE#         337
  C:7232H         LINE#         338
  C:7232H         LINE#         339
  -------         ENDPROC       RECEIVER_BEEP
  -------         PROC          TEST_BEEP
  C:7058H         LINE#         341
  C:7058H         LINE#         342
  C:7058H         LINE#         343
  C:7065H         LINE#         344
  C:7072H         LINE#         345
  C:707FH         LINE#         346
  C:707FH         LINE#         347
  C:708AH         LINE#         348
  C:7095H         LINE#         349
  C:7097H         LINE#         350
BL51 BANKED LINKER/LOCATER V6.22.2.0                                                  03/04/2022  11:08:01  PAGE 50


  C:70A7H         LINE#         351
  C:70ACH         LINE#         352
  -------         ENDPROC       TEST_BEEP
  -------         PROC          ID_DECODE_OUT
  -------         DO            
  X:06D7H         SYMBOL        Control_i
  -------         ENDDO         
  C:0B4EH         LINE#         354
  C:0B4EH         LINE#         355
  C:0B4EH         LINE#         358
  C:0B5CH         LINE#         359
  C:0B6BH         LINE#         360
  C:0B6BH         LINE#         361
  C:0B88H         LINE#         362
  C:0B88H         LINE#         363
  C:0BA6H         LINE#         364
  C:0BA6H         LINE#         365
  C:0BBCH         LINE#         366
  C:0BBCH         LINE#         367
  C:0BBCH         LINE#         370
  C:0BBEH         LINE#         371
  C:0BC2H         LINE#         372
  C:0BCDH         LINE#         373
  C:0BD3H         LINE#         375
  C:0BD6H         LINE#         376
  C:0BD6H         LINE#         379
  C:0BD8H         LINE#         380
  C:0BDCH         LINE#         381
  C:0BE7H         LINE#         382
  C:0BEDH         LINE#         384
  C:0BF0H         LINE#         385
  C:0BF0H         LINE#         388
  C:0BF2H         LINE#         389
  C:0BF6H         LINE#         390
  C:0C01H         LINE#         391
  C:0C07H         LINE#         393
  C:0C0AH         LINE#         394
  C:0C0AH         LINE#         395
  C:0C0DH         LINE#         396
  C:0C0DH         LINE#         398
  C:0C0DH         LINE#         399
  C:0C10H         LINE#         401
  C:0C10H         LINE#         402
  C:0C3EH         LINE#         403
  C:0C3EH         LINE#         404
  C:0C3EH         LINE#         405
  C:0C40H         LINE#         406
  C:0C49H         LINE#         408
  C:0C58H         LINE#         409
  C:0C6CH         LINE#         410
  C:0C6CH         LINE#         411
  C:0C7BH         LINE#         412
  C:0C8AH         LINE#         413
  C:0C8DH         LINE#         414
  C:0C8DH         LINE#         415
  C:0C90H         LINE#         416
  C:0C90H         LINE#         417
BL51 BANKED LINKER/LOCATER V6.22.2.0                                                  03/04/2022  11:08:01  PAGE 51


  C:0CC5H         LINE#         418
  C:0CC5H         LINE#         419
  C:0CC7H         LINE#         420
  C:0CCFH         LINE#         422
  C:0CDFH         LINE#         423
  C:0CF0H         LINE#         424
  C:0CF0H         LINE#         425
  C:0CFFH         LINE#         426
  C:0D0FH         LINE#         427
  C:0D12H         LINE#         428
  C:0D23H         LINE#         429
  C:0D23H         LINE#         430
  C:0D33H         LINE#         431
  C:0D43H         LINE#         432
  C:0D46H         LINE#         434
  C:0D46H         LINE#         435
  C:0D54H         LINE#         436
  C:0D64H         LINE#         437
  C:0D73H         LINE#         438
  C:0D73H         LINE#         439
  C:0D73H         LINE#         440
  C:0D76H         LINE#         441
  C:0D76H         LINE#         442
  C:0D78H         LINE#         443
  C:0D83H         LINE#         444
  C:0D83H         LINE#         445
  C:0D93H         LINE#         447
  C:0DA2H         LINE#         448
  C:0DB1H         LINE#         449
  C:0DB4H         LINE#         451
  C:0DB4H         LINE#         452
  C:0DC4H         LINE#         453
  C:0DD4H         LINE#         454
  C:0DE4H         LINE#         456
  C:0DE4H         LINE#         457
  C:0DE7H         LINE#         458
  C:0DE7H         LINE#         459
  C:0DE9H         LINE#         460
  C:0DF9H         LINE#         461
  C:0E09H         LINE#         463
  C:0E18H         LINE#         464
  C:0E1BH         LINE#         465
  C:0E1BH         LINE#         466
  C:0E1DH         LINE#         467
  C:0E2DH         LINE#         468
  C:0E3DH         LINE#         470
  C:0E4CH         LINE#         471
  C:0E4FH         LINE#         472
  C:0E4FH         LINE#         473
  C:0E51H         LINE#         474
  C:0E61H         LINE#         475
  C:0E71H         LINE#         477
  C:0E80H         LINE#         478
  C:0E83H         LINE#         479
  C:0E83H         LINE#         480
  C:0E85H         LINE#         481
  C:0E8EH         LINE#         482
BL51 BANKED LINKER/LOCATER V6.22.2.0                                                  03/04/2022  11:08:01  PAGE 52


  C:0E9EH         LINE#         484
  C:0EADH         LINE#         485
  C:0EC2H         LINE#         486
  C:0EC2H         LINE#         487
  C:0ED0H         LINE#         488
  C:0ED6H         LINE#         489
  C:0ED6H         LINE#         490
  C:0EE4H         LINE#         491
  C:0EF3H         LINE#         492
  C:0EF6H         LINE#         493
  C:0EF6H         LINE#         494
  C:0EF8H         LINE#         495
  C:0F01H         LINE#         496
  C:0F11H         LINE#         498
  C:0F20H         LINE#         499
  C:0F35H         LINE#         500
  C:0F35H         LINE#         501
  C:0F43H         LINE#         502
  C:0F49H         LINE#         503
  C:0F49H         LINE#         504
  C:0F57H         LINE#         505
  C:0F66H         LINE#         506
  C:0F69H         LINE#         507
  C:0F69H         LINE#         508
  C:0F6BH         LINE#         509
  C:0F7BH         LINE#         511
  C:0F8AH         LINE#         512
  C:0F99H         LINE#         513
  C:0F9BH         LINE#         514
  C:0F9BH         LINE#         515
  C:0F9DH         LINE#         516
  C:0FADH         LINE#         517
  C:0FBDH         LINE#         518
  C:0FCCH         LINE#         520
  C:0FCEH         LINE#         521
  C:0FCEH         LINE#         522
  C:0FD0H         LINE#         523
  C:0FE0H         LINE#         524
  C:0FF0H         LINE#         525
  C:0FFFH         LINE#         527
  C:0FFFH         LINE#         528
  C:0FFFH         LINE#         529
  C:0FFFH         LINE#         530
  C:0FFFH         LINE#         531
  C:100FH         LINE#         532
  C:100FH         LINE#         533
  C:103AH         LINE#         534
  C:103AH         LINE#         535
  C:1050H         LINE#         536
  C:1056H         LINE#         537
  C:105BH         LINE#         538
  C:105DH         LINE#         539
  C:106DH         LINE#         540
  C:107DH         LINE#         541
  C:108CH         LINE#         542
  C:10B9H         LINE#         543
  C:10BBH         LINE#         544
BL51 BANKED LINKER/LOCATER V6.22.2.0                                                  03/04/2022  11:08:01  PAGE 53


  C:10BBH         LINE#         545
  C:10C0H         LINE#         546
  C:10C6H         LINE#         547
  C:10C8H         LINE#         548
  C:10D8H         LINE#         549
  C:10E7H         LINE#         550
  C:10F7H         LINE#         551
  C:1124H         LINE#         552
  C:1124H         LINE#         553
  C:1124H         LINE#         554
  C:1155H         LINE#         555
  C:1155H         LINE#         556
  C:1163H         LINE#         557
  C:1171H         LINE#         558
  C:117CH         LINE#         559
  C:1182H         LINE#         560
  C:1188H         LINE#         561
  C:1191H         LINE#         562
  C:1191H         LINE#         563
  C:1191H         LINE#         564
  C:11AEH         LINE#         565
  C:1240H         LINE#         566
  C:1240H         LINE#         568
  C:1252H         LINE#         569
  C:1252H         LINE#         570
  C:1252H         LINE#         572
  C:1323H         LINE#         574
  C:1323H         LINE#         575
  C:1331H         LINE#         576
  C:1348H         LINE#         577
  C:1351H         LINE#         578
  C:1351H         LINE#         581
  C:1351H         LINE#         583
  C:1354H         LINE#         585
  C:1354H         LINE#         588
  C:1375H         LINE#         589
  C:1375H         LINE#         590
  C:1383H         LINE#         591
  C:138DH         LINE#         592
  C:138FH         LINE#         593
  C:138FH         LINE#         594
  C:139EH         LINE#         595
  C:139EH         LINE#         596
  C:13AFH         LINE#         597
  C:13AFH         LINE#         598
  C:13BEH         LINE#         599
  C:13CEH         LINE#         600
  C:13D0H         LINE#         601
  C:13E1H         LINE#         602
  C:13E1H         LINE#         603
  C:13F1H         LINE#         604
  C:1401H         LINE#         605
  C:1403H         LINE#         607
  C:1403H         LINE#         608
  C:1413H         LINE#         609
  C:1422H         LINE#         610
  C:1422H         LINE#         611
BL51 BANKED LINKER/LOCATER V6.22.2.0                                                  03/04/2022  11:08:01  PAGE 54


  C:1424H         LINE#         613
  C:1424H         LINE#         614
  C:1432H         LINE#         615
  C:1442H         LINE#         616
  C:1442H         LINE#         617
  C:1450H         LINE#         618
  C:145EH         LINE#         619
  C:146EH         LINE#         621
  C:14BBH         LINE#         623
  C:14CCH         LINE#         624
  C:14D0H         LINE#         625
  C:14DCH         LINE#         626
  C:14DEH         LINE#         628
  C:14F8H         LINE#         630
  C:152DH         LINE#         631
  C:1553H         LINE#         632
  C:1555H         LINE#         633
  C:158BH         LINE#         635
  C:15A1H         LINE#         636
  C:15A1H         LINE#         637
  C:15AFH         LINE#         638
  C:15BDH         LINE#         639
  C:15CBH         LINE#         640
  C:15CBH         LINE#         641
  C:15E3H         LINE#         642
  C:15E3H         LINE#         643
  C:15F3H         LINE#         644
  C:1601H         LINE#         645
  C:1601H         LINE#         646
  C:1606H         LINE#         647
  C:1606H         LINE#         648
  C:1612H         LINE#         649
  C:1620H         LINE#         650
  -------         ENDPROC       ID_DECODE_OUT
  -------         PROC          _RETURN_ID_DATA
  D:0069H         SYMBOL        i
  -------         DO            
  I:00BEH         SYMBOL        ID_dat
  I:00C2H         SYMBOL        xn
  -------         ENDDO         
  C:6F36H         LINE#         653
  C:6F38H         LINE#         654
  C:6F38H         LINE#         655
  C:6F41H         LINE#         657
  C:6F45H         LINE#         658
  C:6F5CH         LINE#         659
  C:6F73H         LINE#         660
  C:6F8AH         LINE#         661
  C:6F94H         LINE#         662
  C:6F99H         LINE#         663
  -------         ENDPROC       _RETURN_ID_DATA
  -------         ENDMOD        ID_DECODE

  -------         MODULE        ML7345
  C:0000H         SYMBOL        _ICE_DUMMY_
  X:05C7H         PUBLIC        First_TX_Scan
  X:05C8H         PUBLIC        APP_TX_freq
BL51 BANKED LINKER/LOCATER V6.22.2.0                                                  03/04/2022  11:08:01  PAGE 55


  D:0090H         PUBLIC        P1
  D:00A0H         PUBLIC        P2
  D:00C0H         PUBLIC        XICON
  D:00B0H         PUBLIC        P3
  D:00E8H         PUBLIC        P4
  D:00F8H         PUBLIC        P5
  D:00F8H         PUBLIC        P6
  C:1621H         PUBLIC        APP_TX_PACKET
  D:00A8H         PUBLIC        IE
  C:733DH         PUBLIC        ML7345_MeasurBER_Init
  X:05C9H         PUBLIC        Receiver_vent_Cache
  C:6DE5H         PUBLIC        Uart_RF_Ber_Test
  X:05CAH         PUBLIC        tx_pack_cnt
  C:70ADH         PUBLIC        RF_Ber_Test
  D:00B8H         PUBLIC        IP0L
  X:05CBH         PUBLIC        Fre_429_350
  X:05D3H         PUBLIC        Fre_426_750
  X:05DBH         PUBLIC        Fre_426_075
  X:05E3H         PUBLIC        Fre_429_550
  C:6166H         PUBLIC        ML7345d_Change_Channel
  X:05EBH         PUBLIC        Fre_429_175
  X:05F3H         PUBLIC        Freq_SetBuff
  D:00D8H         PUBLIC        CCON
  C:64CEH         PUBLIC        SCAN_RECEIVE_PACKET
  C:70FEH         PUBLIC        _Tx_Data_Test
  X:05FBH         PUBLIC        TX_Scan_step
  B:00E8H.0       PUBLIC        P40
  B:00A0H.2       PUBLIC        P22
  B:0090H.3       PUBLIC        P13
  B:00E8H.1       PUBLIC        P41
  B:00A0H.3       PUBLIC        P23
  D:0088H         PUBLIC        TCON
  B:00A0H.4       PUBLIC        P24
  B:00A0H.5       PUBLIC        P25
  B:00B0H.5       PUBLIC        P35
  B:00A0H.7       PUBLIC        P27
  C:628DH         PUBLIC        ML7345D_Freq_Scanning
  X:05FCH         PUBLIC        rf_offset
  C:5BBDH         PUBLIC        ML7345_TRX_Del
  C:6CEFH         PUBLIC        DataReceive
  C:4D29H         PUBLIC        ML7345D_RF_test_mode
  X:05FDH         PUBLIC        Radio_Date_Type
  X:05FEH         PUBLIC        SPI_RECEIVE_BUFF
  C:42A0H         PUBLIC        _RF_ML7345_Init
  X:0626H         PUBLIC        SPI_Receive_DataForC
  C:3DD3H         PUBLIC        _TX_DataLoad_HighSpeed
  D:0098H         PUBLIC        S0CON
  D:0098H         PUBLIC        S1CON
  X:0642H         PUBLIC        Radio_Date_Type_bak
  D:00C8H         PUBLIC        T2CON
  C:603DH         PUBLIC        RX_ANALYSIS
  D:00D0H         PUBLIC        PSW
  -------         PROC          _RF_ML7345_INIT
  D:0032H         SYMBOL        freq
  D:0035H         SYMBOL        sync
  D:0036H         SYMBOL        rx_len
  C:42A0H         LINE#         44
BL51 BANKED LINKER/LOCATER V6.22.2.0                                                  03/04/2022  11:08:01  PAGE 56


  C:42A8H         LINE#         45
  C:42A8H         LINE#         46
  C:42ABH         LINE#         47
  C:42ABH         LINE#         48
  C:42B6H         LINE#         49
  C:42B8H         LINE#         50
  C:42B8H         LINE#         51
  C:42BAH         LINE#         52
  C:42C1H         LINE#         53
  C:42C8H         LINE#         54
  C:42CFH         LINE#         55
  C:42D6H         LINE#         56
  C:42DDH         LINE#         57
  C:42E4H         LINE#         58
  C:42EBH         LINE#         59
  C:42F2H         LINE#         60
  C:42F9H         LINE#         61
  C:4300H         LINE#         62
  C:4307H         LINE#         63
  C:430EH         LINE#         64
  C:4315H         LINE#         65
  C:431CH         LINE#         66
  C:4323H         LINE#         67
  C:432AH         LINE#         68
  C:4331H         LINE#         69
  C:4338H         LINE#         70
  C:433FH         LINE#         71
  C:4346H         LINE#         72
  C:434DH         LINE#         73
  C:4354H         LINE#         74
  C:435BH         LINE#         75
  C:4362H         LINE#         76
  C:4369H         LINE#         77
  C:4370H         LINE#         78
  C:4377H         LINE#         80
  C:437EH         LINE#         82
  C:4385H         LINE#         84
  C:438CH         LINE#         86
  C:4393H         LINE#         87
  C:439AH         LINE#         89
  C:43A1H         LINE#         91
  C:43A8H         LINE#         92
  C:43AFH         LINE#         93
  C:43B6H         LINE#         94
  C:43BDH         LINE#         96
  C:43C4H         LINE#         98
  C:43CBH         LINE#         100
  C:43D2H         LINE#         102
  C:43D9H         LINE#         103
  C:43E0H         LINE#         104
  C:43E7H         LINE#         106
  C:43EEH         LINE#         108
  C:43F5H         LINE#         109
  C:43FCH         LINE#         111
  C:4403H         LINE#         112
  C:440AH         LINE#         116
  C:4411H         LINE#         117
BL51 BANKED LINKER/LOCATER V6.22.2.0                                                  03/04/2022  11:08:01  PAGE 57


  C:4418H         LINE#         118
  C:441FH         LINE#         119
  C:4426H         LINE#         120
  C:442DH         LINE#         122
  C:4434H         LINE#         124
  C:443BH         LINE#         126
  C:4442H         LINE#         128
  C:4451H         LINE#         129
  C:4466H         LINE#         130
  C:447BH         LINE#         131
  C:4490H         LINE#         132
  C:449FH         LINE#         133
  C:44B4H         LINE#         134
  C:44C9H         LINE#         135
  C:44DEH         LINE#         137
  C:44E5H         LINE#         138
  C:44ECH         LINE#         140
  C:44F3H         LINE#         141
  C:44FAH         LINE#         142
  C:4501H         LINE#         143
  C:4508H         LINE#         144
  C:450FH         LINE#         145
  C:4516H         LINE#         147
  C:451DH         LINE#         148
  C:4524H         LINE#         149
  C:452BH         LINE#         153
  C:4540H         LINE#         154
  C:4555H         LINE#         155
  C:456AH         LINE#         156
  C:457FH         LINE#         157
  C:4586H         LINE#         158
  C:458DH         LINE#         159
  C:4594H         LINE#         161
  C:459BH         LINE#         162
  C:45A2H         LINE#         163
  C:45A9H         LINE#         164
  C:45B0H         LINE#         165
  C:45B7H         LINE#         167
  C:45BAH         LINE#         169
  C:45C1H         LINE#         170
  C:45C8H         LINE#         173
  C:45CFH         LINE#         174
  C:45D6H         LINE#         176
  C:45DDH         LINE#         177
  C:45E4H         LINE#         178
  C:45EBH         LINE#         179
  C:45F2H         LINE#         180
  C:45F9H         LINE#         181
  C:4600H         LINE#         182
  C:4607H         LINE#         183
  C:460EH         LINE#         185
  C:464BH         LINE#         186
  C:464EH         LINE#         189
  C:4655H         LINE#         190
  C:465CH         LINE#         191
  C:465CH         LINE#         192
  C:4667H         LINE#         193
BL51 BANKED LINKER/LOCATER V6.22.2.0                                                  03/04/2022  11:08:01  PAGE 58


  C:4669H         LINE#         194
  C:4669H         LINE#         195
  C:466BH         LINE#         196
  C:466EH         LINE#         197
  -------         ENDPROC       _RF_ML7345_INIT
  -------         PROC          ML7345_MEASURBER_INIT
  C:733DH         LINE#         199
  C:733DH         LINE#         200
  C:733DH         LINE#         201
  C:7344H         LINE#         202
  C:734BH         LINE#         204
  C:7352H         LINE#         205
  C:7359H         LINE#         207
  C:7360H         LINE#         208
  C:7367H         LINE#         209
  C:736EH         LINE#         211
  C:7375H         LINE#         212
  C:737CH         LINE#         213
  -------         ENDPROC       ML7345_MEASURBER_INIT
  -------         PROC          DATARECEIVE
  -------         DO            
  D:0059H         SYMBOL        StateCache
  D:005AH         SYMBOL        Cache
  D:005BH         SYMBOL        X_HISbyte
  -------         ENDDO         
  C:6CEFH         LINE#         216
  C:6CEFH         LINE#         217
  C:6CEFH         LINE#         221
  C:6D01H         LINE#         222
  C:6D01H         LINE#         223
  C:6D01H         LINE#         224
  C:6D01H         LINE#         225
  C:6D07H         LINE#         226
  C:6D0AH         LINE#         227
  C:6D0CH         LINE#         228
  C:6D16H         LINE#         229
  C:6D16H         LINE#         230
  C:6D19H         LINE#         231
  C:6D1CH         LINE#         232
  C:6D1FH         LINE#         233
  C:6D1FH         LINE#         234
  C:6D1FH         LINE#         235
  C:6D20H         LINE#         236
  C:6D20H         LINE#         237
  C:6D20H         LINE#         238
  C:6D2AH         LINE#         239
  C:6D38H         LINE#         240
  C:6D46H         LINE#         241
  C:6D49H         LINE#         242
  C:6D5AH         LINE#         243
  C:6D5DH         LINE#         244
  C:6D5DH         LINE#         245
  C:6D5EH         LINE#         246
  C:6D5EH         LINE#         247
  C:6D6AH         LINE#         248
  C:6D6DH         LINE#         249
  C:6D6DH         LINE#         250
BL51 BANKED LINKER/LOCATER V6.22.2.0                                                  03/04/2022  11:08:01  PAGE 59


  C:6D6DH         LINE#         251
  C:6D6DH         LINE#         252
  C:6D6DH         LINE#         253
  -------         ENDPROC       DATARECEIVE
  -------         PROC          _TX_DATA_TEST
  D:006AH         SYMBOL        mode
  C:70FEH         LINE#         257
  C:7100H         LINE#         258
  C:7100H         LINE#         259
  C:7107H         LINE#         260
  C:711CH         LINE#         261
  C:711CH         LINE#         263
  C:7125H         LINE#         266
  C:712EH         LINE#         269
  C:7137H         LINE#         272
  C:7140H         LINE#         275
  C:7140H         LINE#         276
  C:7147H         LINE#         277
  C:7147H         LINE#         278
  C:7147H         LINE#         279
  C:714CH         LINE#         280
  -------         ENDPROC       _TX_DATA_TEST
  -------         PROC          RF_BER_TEST
  C:70ADH         LINE#         283
  C:70ADH         LINE#         284
  C:70ADH         LINE#         285
  C:70BEH         LINE#         286
  C:70BEH         LINE#         287
  C:70D3H         LINE#         288
  C:70D5H         LINE#         289
  C:70DDH         LINE#         290
  C:70E5H         LINE#         291
  C:70EFH         LINE#         292
  C:70EFH         LINE#         293
  C:70FBH         LINE#         294
  C:70FDH         LINE#         295
  -------         ENDPROC       RF_BER_TEST
  -------         PROC          UART_RF_BER_TEST
  C:6DE5H         LINE#         297
  C:6DE5H         LINE#         298
  C:6DE5H         LINE#         299
  C:6DF6H         LINE#         300
  C:6DF6H         LINE#         301
  C:6E0FH         LINE#         302
  C:6E1CH         LINE#         304
  C:6E31H         LINE#         305
  C:6E33H         LINE#         307
  C:6E3BH         LINE#         308
  C:6E43H         LINE#         309
  C:6E4DH         LINE#         310
  C:6E4DH         LINE#         311
  C:6E59H         LINE#         312
  C:6E5BH         LINE#         313
  -------         ENDPROC       UART_RF_BER_TEST
  -------         PROC          APP_TX_PACKET
  -------         DO            
  X:05BEH         SYMBOL        rssi
BL51 BANKED LINKER/LOCATER V6.22.2.0                                                  03/04/2022  11:08:01  PAGE 60


  X:05BFH         SYMBOL        i
  X:05C0H         SYMBOL        j
  -------         ENDDO         
  C:1621H         LINE#         315
  C:1621H         LINE#         316
  C:1621H         LINE#         318
  C:162CH         LINE#         320
  C:1654H         LINE#         322
  C:1671H         LINE#         323
  C:1671H         LINE#         324
  C:167FH         LINE#         325
  C:168DH         LINE#         326
  C:168DH         LINE#         327
  C:175BH         LINE#         330
  C:175BH         LINE#         331
  C:17A4H         LINE#         333
  C:17B2H         LINE#         334
  C:17B8H         LINE#         335
  C:17BEH         LINE#         336
  C:17C8H         LINE#         337
  C:17DBH         LINE#         338
  C:17DBH         LINE#         339
  C:1816H         LINE#         340
  C:181CH         LINE#         341
  C:1822H         LINE#         342
  C:1831H         LINE#         343
  C:1833H         LINE#         344
  C:1845H         LINE#         345
  C:1845H         LINE#         346
  C:1853H         LINE#         347
  C:1861H         LINE#         348
  C:186FH         LINE#         349
  C:186FH         LINE#         351
  C:1875H         LINE#         352
  C:1883H         LINE#         353
  C:1891H         LINE#         355
  C:1896H         LINE#         356
  C:189CH         LINE#         357
  C:18A1H         LINE#         359
  C:18A4H         LINE#         360
  C:1983H         LINE#         366
  C:1983H         LINE#         367
  C:1991H         LINE#         368
  C:199FH         LINE#         369
  C:19C4H         LINE#         370
  C:19D6H         LINE#         371
  C:19F6H         LINE#         372
  C:1A04H         LINE#         373
  C:1A1FH         LINE#         374
  C:1A29H         LINE#         375
  C:1A61H         LINE#         376
  C:1A6FH         LINE#         377
  C:1A77H         LINE#         379
  C:1A7DH         LINE#         380
  C:1A8BH         LINE#         381
  C:1A99H         LINE#         382
  C:1A9EH         LINE#         383
BL51 BANKED LINKER/LOCATER V6.22.2.0                                                  03/04/2022  11:08:01  PAGE 61


  C:1AA4H         LINE#         384
  C:1AA9H         LINE#         386
  C:1AAEH         LINE#         387
  C:1AB8H         LINE#         388
  C:1AB8H         LINE#         389
  C:1AD1H         LINE#         390
  C:1AD1H         LINE#         391
  C:1AE4H         LINE#         392
  C:1AF4H         LINE#         393
  C:1AF4H         LINE#         394
  C:1B02H         LINE#         395
  C:1B02H         LINE#         396
  C:1B0EH         LINE#         397
  C:1B15H         LINE#         398
  C:1B17H         LINE#         399
  C:1B69H         LINE#         400
  C:1B6EH         LINE#         401
  C:1B75H         LINE#         402
  C:1B7CH         LINE#         403
  C:1B83H         LINE#         404
  C:1B86H         LINE#         405
  C:1B91H         LINE#         406
  C:1B98H         LINE#         407
  C:1B9EH         LINE#         408
  C:1BA1H         LINE#         409
  C:1BD2H         LINE#         410
  C:1BD2H         LINE#         411
  C:1BDEH         LINE#         412
  C:1BE9H         LINE#         413
  C:1BF0H         LINE#         414
  C:1BF6H         LINE#         415
  C:1BF9H         LINE#         416
  C:1C29H         LINE#         417
  C:1C29H         LINE#         418
  C:1C35H         LINE#         419
  C:1C3BH         LINE#         420
  C:1C49H         LINE#         421
  C:1C57H         LINE#         422
  C:1C5DH         LINE#         423
  C:1C5FH         LINE#         424
  C:1C6DH         LINE#         425
  C:1C79H         LINE#         426
  C:1C79H         LINE#         427
  C:1C79H         LINE#         428
  C:1C79H         LINE#         429
  C:1CB1H         LINE#         430
  C:1CB1H         LINE#         431
  C:1CBFH         LINE#         432
  C:1CCDH         LINE#         433
  C:1CCEH         LINE#         434
  C:1D25H         LINE#         435
  C:1D25H         LINE#         436
  C:1D51H         LINE#         437
  C:1D7BH         LINE#         438
  C:1D7EH         LINE#         439
  C:1D89H         LINE#         440
  C:1D90H         LINE#         441
BL51 BANKED LINKER/LOCATER V6.22.2.0                                                  03/04/2022  11:08:01  PAGE 62


  C:1D96H         LINE#         442
  C:1DA8H         LINE#         443
  C:1DA8H         LINE#         444
  C:1DADH         LINE#         445
  C:1DB9H         LINE#         446
  C:1DC7H         LINE#         447
  C:1DC9H         LINE#         448
  C:1DC9H         LINE#         449
  C:1DC9H         LINE#         450
  -------         ENDPROC       APP_TX_PACKET
  -------         PROC          ML7345D_RF_TEST_MODE
  C:4D29H         LINE#         453
  C:4D29H         LINE#         454
  C:4D29H         LINE#         455
  C:4D2BH         LINE#         456
  C:4D37H         LINE#         457
  C:4D43H         LINE#         458
  C:4D49H         LINE#         459
  C:4D49H         LINE#         460
  C:4D57H         LINE#         461
  C:4D57H         LINE#         463
  C:4D59H         LINE#         464
  C:4D64H         LINE#         465
  C:4D64H         LINE#         466
  C:4D70H         LINE#         467
  C:4D73H         LINE#         468
  C:4D8BH         LINE#         469
  C:4D8BH         LINE#         470
  C:4D8EH         LINE#         471
  C:4D8EH         LINE#         472
  C:4D91H         LINE#         473
  C:4D98H         LINE#         475
  C:4D9EH         LINE#         476
  C:4DA0H         LINE#         478
  C:4DA0H         LINE#         479
  C:4DA3H         LINE#         480
  C:4DABH         LINE#         482
  C:4DB1H         LINE#         483
  C:4DB1H         LINE#         484
  C:4DCCH         LINE#         485
  C:4DCCH         LINE#         486
  C:4DD0H         LINE#         487
  C:4DDEH         LINE#         488
  C:4DE0H         LINE#         489
  C:4DEEH         LINE#         490
  C:4DFAH         LINE#         491
  C:4E04H         LINE#         492
  C:4E0FH         LINE#         493
  C:4E0FH         LINE#         494
  C:4E11H         LINE#         495
  C:4E1FH         LINE#         496
  C:4E2DH         LINE#         497
  C:4E46H         LINE#         498
  C:4E46H         LINE#         499
  C:4E54H         LINE#         500
  C:4E59H         LINE#         501
  C:4E64H         LINE#         502
BL51 BANKED LINKER/LOCATER V6.22.2.0                                                  03/04/2022  11:08:01  PAGE 63


  C:4E69H         LINE#         503
  C:4E69H         LINE#         504
  C:4E6BH         LINE#         506
  C:4E6BH         LINE#         507
  C:4E77H         LINE#         508
  C:4E77H         LINE#         509
  C:4E81H         LINE#         510
  C:4E83H         LINE#         511
  C:4E83H         LINE#         512
  C:4E91H         LINE#         513
  C:4E9FH         LINE#         514
  C:4EB2H         LINE#         515
  C:4EB2H         LINE#         516
  C:4EC0H         LINE#         517
  C:4EC5H         LINE#         518
  C:4ED0H         LINE#         519
  C:4ED5H         LINE#         520
  C:4ED5H         LINE#         521
  C:4ED5H         LINE#         522
  C:4ED5H         LINE#         524
  C:4EF2H         LINE#         525
  C:4EF2H         LINE#         526
  C:4EF6H         LINE#         527
  C:4F04H         LINE#         528
  C:4F06H         LINE#         529
  C:4F14H         LINE#         530
  C:4F22H         LINE#         531
  C:4F30H         LINE#         532
  C:4F44H         LINE#         533
  C:4F44H         LINE#         534
  C:4F52H         LINE#         535
  C:4F57H         LINE#         536
  C:4F61H         LINE#         537
  C:4F6CH         LINE#         538
  C:4F6FH         LINE#         539
  C:4F74H         LINE#         540
  C:4F74H         LINE#         541
  C:4F81H         LINE#         542
  C:4F81H         LINE#         543
  C:4F8DH         LINE#         544
  C:4F8DH         LINE#         545
  C:4F97H         LINE#         546
  C:4F99H         LINE#         547
  C:4F99H         LINE#         549
  C:4F99H         LINE#         550
  C:4FA6H         LINE#         551
  C:4FA6H         LINE#         552
  C:4FA9H         LINE#         553
  C:4FA9H         LINE#         554
  C:4FA9H         LINE#         555
  C:4FA9H         LINE#         556
  C:4FACH         LINE#         557
  C:4FAFH         LINE#         558
  C:4FBFH         LINE#         559
  C:4FBFH         LINE#         561
  C:4FC4H         LINE#         562
  C:4FD2H         LINE#         563
BL51 BANKED LINKER/LOCATER V6.22.2.0                                                  03/04/2022  11:08:01  PAGE 64


  C:4FD2H         LINE#         564
  C:4FDCH         LINE#         566
  C:4FE8H         LINE#         567
  C:4FF4H         LINE#         568
  C:4FF7H         LINE#         569
  C:4FFAH         LINE#         570
  C:5008H         LINE#         571
  C:5010H         LINE#         572
  C:5012H         LINE#         573
  C:5014H         LINE#         574
  C:5022H         LINE#         576
  C:502CH         LINE#         577
  C:503AH         LINE#         578
  -------         ENDPROC       ML7345D_RF_TEST_MODE
  -------         PROC          ML7345D_CHANGE_CHANNEL
  C:6166H         LINE#         580
  C:6166H         LINE#         581
  C:6166H         LINE#         582
  C:61A5H         LINE#         583
  C:61A5H         LINE#         584
  C:61AFH         LINE#         585
  C:61B5H         LINE#         586
  C:61B9H         LINE#         587
  C:61C7H         LINE#         588
  C:61C8H         LINE#         590
  C:61C8H         LINE#         591
  C:61E0H         LINE#         592
  C:61E0H         LINE#         593
  C:61E0H         LINE#         594
  C:61E6H         LINE#         595
  C:61F0H         LINE#         596
  C:61FEH         LINE#         597
  C:621FH         LINE#         598
  C:6223H         LINE#         599
  C:6224H         LINE#         601
  C:6224H         LINE#         602
  C:622AH         LINE#         603
  C:6234H         LINE#         604
  C:6242H         LINE#         605
  C:6246H         LINE#         606
  C:6247H         LINE#         608
  C:6247H         LINE#         609
  C:624DH         LINE#         610
  C:6257H         LINE#         611
  C:6265H         LINE#         612
  C:6269H         LINE#         613
  C:626AH         LINE#         615
  C:626AH         LINE#         616
  C:6270H         LINE#         617
  C:627AH         LINE#         618
  C:6288H         LINE#         619
  C:628CH         LINE#         620
  C:628CH         LINE#         622
  C:628CH         LINE#         623
  C:628CH         LINE#         624
  C:628CH         LINE#         625
  C:628CH         LINE#         626
BL51 BANKED LINKER/LOCATER V6.22.2.0                                                  03/04/2022  11:08:01  PAGE 65


  -------         ENDPROC       ML7345D_CHANGE_CHANNEL
  -------         PROC          ML7345D_FREQ_SCANNING
  C:628DH         LINE#         628
  C:628DH         LINE#         629
  C:628DH         LINE#         630
  C:629BH         LINE#         631
  C:629BH         LINE#         632
  C:62A6H         LINE#         633
  C:62A9H         LINE#         634
  C:62B8H         LINE#         635
  C:62B8H         LINE#         636
  C:62C2H         LINE#         637
  C:62EEH         LINE#         638
  C:631AH         LINE#         639
  C:6344H         LINE#         640
  C:6347H         LINE#         641
  C:6347H         LINE#         642
  C:634CH         LINE#         643
  C:6350H         LINE#         645
  C:635DH         LINE#         646
  C:6366H         LINE#         647
  C:6378H         LINE#         648
  C:637FH         LINE#         649
  C:638BH         LINE#         650
  C:6397H         LINE#         651
  C:639CH         LINE#         652
  C:63A6H         LINE#         654
  C:63B3H         LINE#         655
  -------         ENDPROC       ML7345D_FREQ_SCANNING
  -------         PROC          ML7345_TRX_DEL
  -------         DO            
  I:00DAH         SYMBOL        reg
  -------         ENDDO         
  C:5BBDH         LINE#         658
  C:5BBDH         LINE#         659
  C:5BBDH         LINE#         660
  C:5BC1H         LINE#         661
  C:5BDCH         LINE#         663
  C:5BEBH         LINE#         664
  C:5BEBH         LINE#         665
  C:5BF2H         LINE#         666
  C:5BFEH         LINE#         667
  C:5C2DH         LINE#         668
  C:5C2DH         LINE#         669
  C:5C3BH         LINE#         670
  C:5C40H         LINE#         671
  C:5C5CH         LINE#         672
  C:5C5CH         LINE#         673
  C:5C66H         LINE#         674
  C:5C79H         LINE#         675
  C:5C87H         LINE#         676
  C:5C89H         LINE#         677
  C:5CBEH         LINE#         678
  C:5CF1H         LINE#         679
  C:5CF4H         LINE#         680
  C:5CF9H         LINE#         681
  C:5CFDH         LINE#         682
BL51 BANKED LINKER/LOCATER V6.22.2.0                                                  03/04/2022  11:08:01  PAGE 66


  C:5CFDH         LINE#         683
  C:5D09H         LINE#         684
  C:5D10H         LINE#         685
  C:5D10H         LINE#         687
  C:5D1CH         LINE#         688
  C:5D1CH         LINE#         689
  C:5D33H         LINE#         690
  C:5D3FH         LINE#         691
  C:5D46H         LINE#         693
  C:5D46H         LINE#         695
  C:5D4FH         LINE#         696
  C:5D63H         LINE#         697
  C:5D63H         LINE#         698
  C:5D6FH         LINE#         699
  C:5D75H         LINE#         700
  C:5D7AH         LINE#         701
  C:5D7AH         LINE#         702
  -------         ENDPROC       ML7345_TRX_DEL
  -------         PROC          RX_ANALYSIS
  -------         DO            
  X:05C1H         SYMBOL        i
  -------         ENDDO         
  C:603DH         LINE#         704
  C:603DH         LINE#         705
  C:603DH         LINE#         707
  C:6057H         LINE#         708
  C:6057H         LINE#         712
  C:613CH         LINE#         713
  C:6145H         LINE#         714
  C:6154H         LINE#         715
  C:6154H         LINE#         716
  C:6162H         LINE#         717
  C:6165H         LINE#         718
  C:6165H         LINE#         719
  -------         ENDPROC       RX_ANALYSIS
  -------         PROC          SCAN_RECEIVE_PACKET
  -------         DO            
  X:05C2H         SYMBOL        Cache
  -------         ENDDO         
  C:64CEH         LINE#         721
  C:64CEH         LINE#         722
  C:64CEH         LINE#         724
  C:64D9H         LINE#         725
  C:64D9H         LINE#         726
  C:64E5H         LINE#         727
  C:6501H         LINE#         728
  C:6501H         LINE#         729
  C:6511H         LINE#         730
  C:651CH         LINE#         731
  C:651EH         LINE#         732
  C:6529H         LINE#         733
  C:652EH         LINE#         734
  C:6531H         LINE#         735
  C:653DH         LINE#         737
  C:6542H         LINE#         738
  C:6551H         LINE#         739
  C:657FH         LINE#         740
BL51 BANKED LINKER/LOCATER V6.22.2.0                                                  03/04/2022  11:08:01  PAGE 67


  C:6585H         LINE#         741
  C:65A9H         LINE#         742
  C:65B0H         LINE#         743
  C:65B7H         LINE#         744
  C:65BEH         LINE#         745
  C:65C3H         LINE#         746
  C:65C7H         LINE#         747
  C:65D3H         LINE#         748
  C:65DAH         LINE#         749
  C:65DAH         LINE#         750
  -------         ENDPROC       SCAN_RECEIVE_PACKET
  -------         PROC          _TX_DATALOAD_HIGHSPEED
  D:0008H         SYMBOL        IDCache
  D:000CH         SYMBOL        CtrCmd
  D:0015H         SYMBOL        Packet
  -------         DO            
  X:05C4H         SYMBOL        i
  X:05C5H         SYMBOL        CRCTemp
  -------         ENDDO         
  C:3DD3H         LINE#         792
  C:3DDBH         LINE#         793
  C:3DDBH         LINE#         795
  C:3DE3H         LINE#         797
  C:3E34H         LINE#         798
  C:3E4BH         LINE#         799
  C:3E6FH         LINE#         801
  C:3E89H         LINE#         802
  C:3E89H         LINE#         803
  C:3EAEH         LINE#         804
  C:3F0AH         LINE#         805
  C:3F13H         LINE#         806
  C:3F2BH         LINE#         807
  C:3F2BH         LINE#         808
  C:3F50H         LINE#         809
  C:3F94H         LINE#         810
  C:3F9DH         LINE#         811
  C:3FA0H         LINE#         812
  C:3FB8H         LINE#         813
  C:3FB8H         LINE#         814
  C:3FDDH         LINE#         815
  C:402BH         LINE#         816
  C:4034H         LINE#         817
  C:404CH         LINE#         818
  C:404CH         LINE#         819
  C:4071H         LINE#         820
  C:40BFH         LINE#         821
  C:40C8H         LINE#         822
  C:40CBH         LINE#         823
  C:40E3H         LINE#         824
  C:40E3H         LINE#         825
  C:4108H         LINE#         826
  C:4156H         LINE#         827
  C:415FH         LINE#         828
  C:4177H         LINE#         829
  C:4177H         LINE#         830
  C:419CH         LINE#         831
  C:41EAH         LINE#         832
BL51 BANKED LINKER/LOCATER V6.22.2.0                                                  03/04/2022  11:08:01  PAGE 68


  C:41F3H         LINE#         833
  C:41F6H         LINE#         834
  C:4211H         LINE#         835
  C:4211H         LINE#         836
  C:4236H         LINE#         837
  C:4296H         LINE#         838
  C:429FH         LINE#         839
  -------         ENDPROC       _TX_DATALOAD_HIGHSPEED
  -------         ENDMOD        ML7345

  -------         MODULE        ML7345_HAL
  C:0000H         SYMBOL        _ICE_DUMMY_
  C:6A50H         PUBLIC        ML7345_DataRate_Set_4_8k
  D:0090H         PUBLIC        P1
  D:00A0H         PUBLIC        P2
  D:00C0H         PUBLIC        XICON
  D:00B0H         PUBLIC        P3
  D:00E8H         PUBLIC        P4
  D:00F8H         PUBLIC        P5
  D:00F8H         PUBLIC        P6
  D:00A8H         PUBLIC        IE
  C:737DH         PUBLIC        _ML7345_AutoTx_Data
  C:5D7BH         PUBLIC        _ML7345_Frequency_Set
  D:00B8H         PUBLIC        IP0L
  C:66D7H         PUBLIC        _ML7345_SetAndGet_State
  C:7470H         PUBLIC        _ML7345_StateFlag_Clear
  D:00D8H         PUBLIC        CCON
  C:75D6H         PUBLIC        _ML7345_AutoStateTransition_Set
  B:00A0H.2       PUBLIC        P22
  C:772AH         PUBLIC        ML7345_AllStateFlag_Clear
  B:00A0H.3       PUBLIC        P23
  D:0088H         PUBLIC        TCON
  B:00B0H.4       PUBLIC        P34
  C:503BH         PUBLIC        _ML7345_Frequency_Calcul
  C:7762H         PUBLIC        RF_SyncWord_DONE
  C:72BCH         PUBLIC        WaitStatus_Complete
  C:7513H         PUBLIC        SetReg_Rssi
  C:77A8H         PUBLIC        ML7345_GPIO0RxDoneInt_Enable
  C:7792H         PUBLIC        ML7345_GPIO0TxDoneInt_Enable
  D:0098H         PUBLIC        S0CON
  D:0098H         PUBLIC        S1CON
  D:00C8H         PUBLIC        T2CON
  C:7825H         PUBLIC        ML7345_RESETN_SET
  C:6B15H         PUBLIC        ML7345_DataRate_Set_1_2k
  C:75A6H         PUBLIC        _ML7345_ReadRx_Pack
  D:00D0H         PUBLIC        PSW
  -------         PROC          _ML7345_AUTOSTATETRANSITION_SET
  D:006BH         SYMBOL        sta
  C:75D6H         LINE#         10
  C:75D8H         LINE#         11
  C:75D8H         LINE#         12
  C:75DFH         LINE#         13
  C:75FDH         LINE#         14
  C:7604H         LINE#         15
  -------         ENDPROC       _ML7345_AUTOSTATETRANSITION_SET
  -------         PROC          _ML7345_SETANDGET_STATE
  D:006CH         SYMBOL        sta
BL51 BANKED LINKER/LOCATER V6.22.2.0                                                  03/04/2022  11:08:01  PAGE 69


  -------         DO            
  X:06D8H         SYMBOL        status
  -------         ENDDO         
  C:66D7H         LINE#         31
  C:66D9H         LINE#         32
  C:66D9H         LINE#         33
  C:66DEH         LINE#         35
  C:66E5H         LINE#         36
  C:66F4H         LINE#         37
  C:6701H         LINE#         38
  C:6701H         LINE#         39
  C:672CH         LINE#         40
  C:672CH         LINE#         41
  C:6733H         LINE#         42
  C:673BH         LINE#         43
  C:6750H         LINE#         44
  C:6750H         LINE#         45
  C:6767H         LINE#         46
  C:676AH         LINE#         47
  C:6796H         LINE#         48
  C:67A4H         LINE#         49
  C:67A7H         LINE#         50
  C:67AEH         LINE#         51
  C:67B1H         LINE#         52
  C:67B1H         LINE#         53
  C:67C0H         LINE#         54
  C:67C0H         LINE#         55
  C:67C0H         LINE#         56
  C:67C5H         LINE#         57
  -------         ENDPROC       _ML7345_SETANDGET_STATE
  -------         PROC          WAITSTATUS_COMPLETE
  -------         DO            
  X:06D9H         SYMBOL        count
  -------         ENDDO         
  C:72BCH         LINE#         60
  C:72BCH         LINE#         61
  C:72BCH         LINE#         62
  C:72C4H         LINE#         63
  C:72CBH         LINE#         64
  C:72CBH         LINE#         65
  C:72CBH         LINE#         66
  C:72D4H         LINE#         67
  C:72D4H         LINE#         68
  C:72DBH         LINE#         69
  C:72DEH         LINE#         70
  C:72DEH         LINE#         71
  C:72F7H         LINE#         72
  C:72FAH         LINE#         73
  C:72FCH         LINE#         74
  -------         ENDPROC       WAITSTATUS_COMPLETE
  -------         PROC          _ML7345_STATEFLAG_CLEAR
  D:006DH         SYMBOL        sta
  C:7470H         LINE#         81
  C:7472H         LINE#         82
  C:7472H         LINE#         83
  C:7479H         LINE#         84
  C:7483H         LINE#         85
BL51 BANKED LINKER/LOCATER V6.22.2.0                                                  03/04/2022  11:08:01  PAGE 70


  C:7483H         LINE#         86
  C:748AH         LINE#         87
  C:7491H         LINE#         88
  C:7492H         LINE#         89
  C:749AH         LINE#         90
  C:749AH         LINE#         91
  C:74A1H         LINE#         92
  C:74A8H         LINE#         93
  C:74A8H         LINE#         94
  -------         ENDPROC       _ML7345_STATEFLAG_CLEAR
  -------         PROC          ML7345_ALLSTATEFLAG_CLEAR
  C:772AH         LINE#         101
  C:772AH         LINE#         102
  C:772AH         LINE#         103
  C:7731H         LINE#         104
  C:7738H         LINE#         105
  C:773FH         LINE#         106
  C:7746H         LINE#         107
  -------         ENDPROC       ML7345_ALLSTATEFLAG_CLEAR
  -------         PROC          ML7345_DATARATE_SET_4_8K
  C:6A50H         LINE#         115
  C:6A50H         LINE#         116
  C:6A50H         LINE#         117
  C:6A57H         LINE#         118
  C:6A5EH         LINE#         119
  C:6A65H         LINE#         120
  C:6A6CH         LINE#         121
  C:6A73H         LINE#         122
  C:6A7AH         LINE#         123
  C:6A81H         LINE#         124
  C:6A88H         LINE#         125
  C:6A8FH         LINE#         126
  C:6A96H         LINE#         127
  C:6A9DH         LINE#         128
  C:6AA4H         LINE#         129
  C:6AABH         LINE#         130
  C:6AB2H         LINE#         131
  C:6AB9H         LINE#         132
  C:6AC0H         LINE#         133
  C:6AC7H         LINE#         134
  C:6ACEH         LINE#         135
  C:6AD5H         LINE#         136
  C:6ADCH         LINE#         137
  C:6AE3H         LINE#         138
  C:6AEAH         LINE#         139
  C:6AF1H         LINE#         140
  C:6AF8H         LINE#         141
  C:6AFFH         LINE#         142
  C:6B06H         LINE#         143
  C:6B0DH         LINE#         144
  C:6B14H         LINE#         145
  -------         ENDPROC       ML7345_DATARATE_SET_4_8K
  -------         PROC          ML7345_DATARATE_SET_1_2K
  C:6B15H         LINE#         147
  C:6B15H         LINE#         148
  C:6B15H         LINE#         149
  C:6B1CH         LINE#         150
BL51 BANKED LINKER/LOCATER V6.22.2.0                                                  03/04/2022  11:08:01  PAGE 71


  C:6B23H         LINE#         151
  C:6B2AH         LINE#         152
  C:6B31H         LINE#         153
  C:6B38H         LINE#         154
  C:6B3FH         LINE#         155
  C:6B46H         LINE#         156
  C:6B4DH         LINE#         157
  C:6B54H         LINE#         158
  C:6B5BH         LINE#         159
  C:6B62H         LINE#         160
  C:6B69H         LINE#         161
  C:6B70H         LINE#         162
  C:6B77H         LINE#         163
  C:6B7EH         LINE#         164
  C:6B85H         LINE#         165
  C:6B8CH         LINE#         166
  C:6B93H         LINE#         167
  C:6B9AH         LINE#         168
  C:6BA1H         LINE#         169
  C:6BA8H         LINE#         170
  C:6BAFH         LINE#         171
  C:6BB6H         LINE#         172
  C:6BBDH         LINE#         173
  C:6BC4H         LINE#         174
  C:6BCBH         LINE#         175
  -------         ENDPROC       ML7345_DATARATE_SET_1_2K
  -------         PROC          ML7345_RESETN_SET
  C:7825H         LINE#         283
  C:7825H         LINE#         284
  C:7825H         LINE#         285
  C:7827H         LINE#         286
  C:782CH         LINE#         287
  C:782EH         LINE#         288
  -------         ENDPROC       ML7345_RESETN_SET
  -------         PROC          _ML7345_FREQUENCY_SET
  D:0047H         SYMBOL        freq
  D:004AH         SYMBOL        radio_type
  C:5D7BH         LINE#         326
  C:5D83H         LINE#         327
  C:5D83H         LINE#         328
  C:5D8FH         LINE#         329
  C:5D9CH         LINE#         330
  C:5DA1H         LINE#         331
  C:5DA8H         LINE#         332
  C:5DB7H         LINE#         333
  C:5DCCH         LINE#         334
  C:5DE1H         LINE#         335
  C:5DF6H         LINE#         336
  C:5E05H         LINE#         337
  C:5E1AH         LINE#         338
  C:5E2FH         LINE#         339
  C:5E44H         LINE#         341
  C:5E59H         LINE#         342
  C:5E6EH         LINE#         343
  C:5E83H         LINE#         344
  C:5E98H         LINE#         346
  C:5E9FH         LINE#         347
BL51 BANKED LINKER/LOCATER V6.22.2.0                                                  03/04/2022  11:08:01  PAGE 72


  C:5EA6H         LINE#         348
  C:5EADH         LINE#         350
  C:5EBCH         LINE#         351
  C:5EC9H         LINE#         353
  C:5ED0H         LINE#         354
  C:5ED0H         LINE#         355
  C:5EDBH         LINE#         356
  C:5EDDH         LINE#         357
  C:5EDDH         LINE#         358
  C:5EDFH         LINE#         360
  C:5EE6H         LINE#         361
  C:5EF2H         LINE#         362
  -------         ENDPROC       _ML7345_FREQUENCY_SET
  -------         PROC          ML7345_GPIO0TXDONEINT_ENABLE
  C:7792H         LINE#         392
  C:7792H         LINE#         393
  C:7792H         LINE#         395
  C:7799H         LINE#         396
  C:77A0H         LINE#         397
  C:77A7H         LINE#         398
  -------         ENDPROC       ML7345_GPIO0TXDONEINT_ENABLE
  -------         PROC          ML7345_GPIO0RXDONEINT_ENABLE
  C:77A8H         LINE#         399
  C:77A8H         LINE#         400
  C:77A8H         LINE#         401
  C:77AFH         LINE#         403
  C:77B6H         LINE#         404
  C:77BDH         LINE#         405
  -------         ENDPROC       ML7345_GPIO0RXDONEINT_ENABLE
  -------         PROC          _ML7345_READRX_PACK
  D:004BH         SYMBOL        pbuf
  D:004EH         SYMBOL        len
  C:75A6H         LINE#         541
  C:75AEH         LINE#         542
  C:75AEH         LINE#         543
  C:75C0H         LINE#         544
  C:75C7H         LINE#         545
  C:75D5H         LINE#         546
  -------         ENDPROC       _ML7345_READRX_PACK
  -------         PROC          _ML7345_AUTOTX_DATA
  D:004FH         SYMBOL        pbuf
  D:0052H         SYMBOL        len
  C:737DH         LINE#         553
  C:7385H         LINE#         554
  C:7385H         LINE#         555
  C:7397H         LINE#         556
  C:739BH         LINE#         557
  C:73A2H         LINE#         558
  C:73A9H         LINE#         559
  C:73AEH         LINE#         560
  C:73BCH         LINE#         561
  -------         ENDPROC       _ML7345_AUTOTX_DATA
  -------         PROC          RF_SYNCWORD_DONE
  -------         DO            
  I:00DBH         SYMBOL        sync
  -------         ENDDO         
  C:7762H         LINE#         563
BL51 BANKED LINKER/LOCATER V6.22.2.0                                                  03/04/2022  11:08:01  PAGE 73


  C:7762H         LINE#         564
  C:7762H         LINE#         565
  C:7766H         LINE#         566
  C:776DH         LINE#         567
  C:7776H         LINE#         568
  C:777AH         LINE#         569
  -------         ENDPROC       RF_SYNCWORD_DONE
  -------         PROC          _ML7345_FREQUENCY_CALCUL
  D:0021H         SYMBOL        Freq
  D:0025H         SYMBOL        pbuf
  -------         DO            
  X:06DBH         SYMBOL        integer
  X:06DCH         SYMBOL        f_dec
  X:06E0H         SYMBOL        cal_val
  -------         ENDDO         
  C:503BH         LINE#         571
  C:5049H         LINE#         572
  C:5049H         LINE#         573
  C:504EH         LINE#         574
  C:5058H         LINE#         575
  C:5062H         LINE#         576
  C:507AH         LINE#         577
  C:50BBH         LINE#         578
  C:50DDH         LINE#         579
  C:50ECH         LINE#         580
  C:511FH         LINE#         581
  C:5152H         LINE#         582
  C:5180H         LINE#         584
  C:5198H         LINE#         585
  C:51B0H         LINE#         586
  C:51F1H         LINE#         587
  C:5213H         LINE#         588
  C:5228H         LINE#         589
  C:525BH         LINE#         590
  C:528EH         LINE#         591
  C:52BCH         LINE#         592
  -------         ENDPROC       _ML7345_FREQUENCY_CALCUL
  -------         PROC          SETREG_RSSI
  C:7513H         LINE#         594
  C:7513H         LINE#         595
  C:7513H         LINE#         596
  C:751AH         LINE#         597
  C:7521H         LINE#         598
  C:7528H         LINE#         599
  C:752FH         LINE#         600
  C:7536H         LINE#         601
  C:753DH         LINE#         602
  C:7544H         LINE#         603
  -------         ENDPROC       SETREG_RSSI
  -------         ENDMOD        ML7345_HAL

  -------         MODULE        ?C?FPADD
  C:2576H         PUBLIC        ?C?FPADD
  C:2572H         PUBLIC        ?C?FPSUB
  -------         ENDMOD        ?C?FPADD

  -------         MODULE        ?C?FPMUL
BL51 BANKED LINKER/LOCATER V6.22.2.0                                                  03/04/2022  11:08:01  PAGE 74


  C:2667H         PUBLIC        ?C?FPMUL
  -------         ENDMOD        ?C?FPMUL

  -------         MODULE        ?C?FPDIV
  C:2770H         PUBLIC        ?C?FPDIV
  -------         ENDMOD        ?C?FPDIV

  -------         MODULE        ?C?FCAST
  C:2817H         PUBLIC        ?C?FCASTC
  C:2812H         PUBLIC        ?C?FCASTI
  C:280DH         PUBLIC        ?C?FCASTL
  -------         ENDMOD        ?C?FCAST

  -------         MODULE        ?C?CASTF
  C:284BH         PUBLIC        ?C?CASTF
  -------         ENDMOD        ?C?CASTF

  -------         MODULE        ?C?COPY
  C:299CH         PUBLIC        ?C?COPY
  -------         ENDMOD        ?C?COPY

  -------         MODULE        ?C?CLDPTR
  C:29C2H         PUBLIC        ?C?CLDPTR
  -------         ENDMOD        ?C?CLDPTR

  -------         MODULE        ?C?CLDOPTR
  C:29DBH         PUBLIC        ?C?CLDOPTR
  -------         ENDMOD        ?C?CLDOPTR

  -------         MODULE        ?C?CSTPTR
  C:2A08H         PUBLIC        ?C?CSTPTR
  -------         ENDMOD        ?C?CSTPTR

  -------         MODULE        ?C?CSTOPTR
  C:2A1AH         PUBLIC        ?C?CSTOPTR
  -------         ENDMOD        ?C?CSTOPTR

  -------         MODULE        ?C?IMUL
  C:2A3CH         PUBLIC        ?C?IMUL
  -------         ENDMOD        ?C?IMUL

  -------         MODULE        ?C?UIDIV
  C:2A4EH         PUBLIC        ?C?UIDIV
  -------         ENDMOD        ?C?UIDIV

  -------         MODULE        ?C?SIDIV
  C:2AA3H         PUBLIC        ?C?SIDIV
  -------         ENDMOD        ?C?SIDIV

  -------         MODULE        ?C?ILDIX
  C:2AD9H         PUBLIC        ?C?ILDIX
  -------         ENDMOD        ?C?ILDIX

  -------         MODULE        ?C?LMUL
  C:2AEFH         PUBLIC        ?C?LMUL
  -------         ENDMOD        ?C?LMUL

BL51 BANKED LINKER/LOCATER V6.22.2.0                                                  03/04/2022  11:08:01  PAGE 75


  -------         MODULE        ?C?ULDIV
  C:2B7AH         PUBLIC        ?C?ULDIV
  -------         ENDMOD        ?C?ULDIV

  -------         MODULE        ?C?SLDIV
  C:7278H         PUBLIC        ?C?SLDIV
  -------         ENDMOD        ?C?SLDIV

  -------         MODULE        ?C?LNEG
  C:2C0CH         PUBLIC        ?C?LNEG
  -------         ENDMOD        ?C?LNEG

  -------         MODULE        ?C?ULCMP
  C:2C1AH         PUBLIC        ?C?ULCMP
  -------         ENDMOD        ?C?ULCMP

  -------         MODULE        ?C?ULSHR
  C:2C2BH         PUBLIC        ?C?ULSHR
  -------         ENDMOD        ?C?ULSHR

  -------         MODULE        ?C?LSHL
  C:2C3EH         PUBLIC        ?C?LSHL
  -------         ENDMOD        ?C?LSHL

  -------         MODULE        ?C?LLDIDATA
  C:2C51H         PUBLIC        ?C?LLDIDATA
  -------         ENDMOD        ?C?LLDIDATA

  -------         MODULE        ?C?LLDIDATA0
  C:2C5DH         PUBLIC        ?C?LLDIDATA0
  -------         ENDMOD        ?C?LLDIDATA0

  -------         MODULE        ?C?LSTIDATA
  C:2C6AH         PUBLIC        ?C?LSTIDATA
  -------         ENDMOD        ?C?LSTIDATA

  -------         MODULE        ?C?LSTXDATA
  C:2C76H         PUBLIC        ?C?LSTXDATA
  -------         ENDMOD        ?C?LSTXDATA

  -------         MODULE        ?C?LSTKIDATA
  C:2C82H         PUBLIC        ?C?LSTKIDATA
  -------         ENDMOD        ?C?LSTKIDATA

  -------         MODULE        ?C?LSTKXDATA
  C:2C9BH         PUBLIC        ?C?LSTKXDATA
  -------         ENDMOD        ?C?LSTKXDATA

  -------         MODULE        ?C?OFFXADD
  C:2CCCH         PUBLIC        ?C?OFFXADD
  -------         ENDMOD        ?C?OFFXADD

  -------         MODULE        ?C?CCASE
  C:2CD8H         PUBLIC        ?C?CCASE
  -------         ENDMOD        ?C?CCASE

*** WARNING L16: UNCALLED SEGMENT, IGNORED FOR OVERLAY PROCESS
BL51 BANKED LINKER/LOCATER V6.22.2.0                                                  03/04/2022  11:08:01  PAGE 76


    SEGMENT: ?PR?INIT_INT0?GPIO

Program Size: data=220.7 xdata=1767 code=30772
LINK/LOCATE RUN COMPLETE.  1 WARNING(S),  0 ERROR(S)
