BL51 BANKED LINKER/LOCATER V6.22.2.0                                                    03/01/2022  16:31:57  PAGE 1


BL51 BANKED LINKER/LOCATER V6.22.2.0, INVOKED BY:
C:\KEIL_V5\C51\BIN\BL51.EXE .\Objects\main.obj, .\Objects\sys.obj, .\Objects\gpio.obj, .\Objects\timer.obj, .\Objects\ua
>> rt.obj, .\Objects\IAP_flash.obj, .\Objects\spi.obj, .\Objects\ram.obj, .\Objects\ID_Decode.obj, .\Objects\ML7345.obj,
>>  .\Objects\ML7345_HAL.obj TO .\Objects\CRX1831DCM_MA82G5B32_Pro PRINT (.\Listings\CRX1831DCM_MA82G5B32_Pro.m51) RAMSI
>> ZE (256) CODE (0X0000-0X7FFF) XDATA (0X0000-0X06FF)


MEMORY MODEL: SMALL WITH FLOATING POINT ARITHMETIC


INPUT MODULES INCLUDED:
  .\Objects\main.obj (MAIN)
  .\Objects\sys.obj (SYS)
  .\Objects\gpio.obj (GPIO)
  .\Objects\timer.obj (TIMER)
  .\Objects\uart.obj (UART)
  .\Objects\IAP_flash.obj (IAP_FLASH)
  .\Objects\spi.obj (SPI)
  .\Objects\ram.obj (RAM)
  .\Objects\ID_Decode.obj (ID_DECODE)
  .\Objects\ML7345.obj (ML7345)
  .\Objects\ML7345_HAL.obj (ML7345_HAL)
  C:\KEIL_V5\C51\LIB\C51FPS.LIB (?C?FPADD)
  C:\KEIL_V5\C51\LIB\C51FPS.LIB (?C?FPMUL)
  C:\KEIL_V5\C51\LIB\C51FPS.LIB (?C?FPDIV)
  C:\KEIL_V5\C51\LIB\C51FPS.LIB (?C?FCAST)
  C:\KEIL_V5\C51\LIB\C51FPS.LIB (?C?CASTF)
  C:\KEIL_V5\C51\LIB\C51FPS.LIB (?C?FPGETOPN)
  C:\KEIL_V5\C51\LIB\C51S.LIB (?C_STARTUP)
  C:\KEIL_V5\C51\LIB\C51S.LIB (?C?COPY)
  C:\KEIL_V5\C51\LIB\C51S.LIB (?C?CLDPTR)
  C:\KEIL_V5\C51\LIB\C51S.LIB (?C?CLDOPTR)
  C:\KEIL_V5\C51\LIB\C51S.LIB (?C?CSTPTR)
  C:\KEIL_V5\C51\LIB\C51S.LIB (?C?CSTOPTR)
  C:\KEIL_V5\C51\LIB\C51S.LIB (?C?IMUL)
  C:\KEIL_V5\C51\LIB\C51S.LIB (?C?UIDIV)
  C:\KEIL_V5\C51\LIB\C51S.LIB (?C?SIDIV)
  C:\KEIL_V5\C51\LIB\C51S.LIB (?C?ILDIX)
  C:\KEIL_V5\C51\LIB\C51S.LIB (?C?LMUL)
  C:\KEIL_V5\C51\LIB\C51S.LIB (?C?ULDIV)
  C:\KEIL_V5\C51\LIB\C51S.LIB (?C?SLDIV)
  C:\KEIL_V5\C51\LIB\C51S.LIB (?C?LNEG)
  C:\KEIL_V5\C51\LIB\C51S.LIB (?C?ULCMP)
  C:\KEIL_V5\C51\LIB\C51S.LIB (?C?ULSHR)
  C:\KEIL_V5\C51\LIB\C51S.LIB (?C?LSHL)
  C:\KEIL_V5\C51\LIB\C51S.LIB (?C?LLDIDATA)
  C:\KEIL_V5\C51\LIB\C51S.LIB (?C?LLDIDATA0)
  C:\KEIL_V5\C51\LIB\C51S.LIB (?C?LSTIDATA)
  C:\KEIL_V5\C51\LIB\C51S.LIB (?C?LSTXDATA)
  C:\KEIL_V5\C51\LIB\C51S.LIB (?C?LSTKIDATA)
  C:\KEIL_V5\C51\LIB\C51S.LIB (?C?LSTKXDATA)
  C:\KEIL_V5\C51\LIB\C51S.LIB (?C?OFFXADD)
  C:\KEIL_V5\C51\LIB\C51S.LIB (?C?CCASE)
  C:\KEIL_V5\C51\LIB\C51S.LIB (?C_INIT)


LINK MAP OF MODULE:  .\Objects\CRX1831DCM_MA82G5B32_Pro (MAIN)

BL51 BANKED LINKER/LOCATER V6.22.2.0                                                  03/01/2022  16:31:57  PAGE 2



            TYPE    BASE      LENGTH    RELOCATION   SEGMENT NAME
            -----------------------------------------------------

            * * * * * * *   D A T A   M E M O R Y   * * * * * * *
            REG     0000H     0008H     ABSOLUTE     "REG BANK 0"
            DATA    0008H     0010H     UNIT         ?DT?_TX_DATALOAD_HIGHSPEED?ML7345
            DATA    0018H     0007H     UNIT         ?DT?_IAP_WRITEBUF_WITH_PROTECT_VERIFY?IAP_FLASH
            DATA    001FH     0001H     UNIT         ?DT?_DELAYXUS?TIMER
            BIT     0020H.0   0000H.1   UNIT         ?BI?_UART0SENDBYTE?UART
            BIT     0020H.1   0000H.1   UNIT         ?BI?UART
            BIT     0020H.2   0000H.1   UNIT         ?BI?_IAP_WRITEPPAGE?IAP_FLASH
            BIT     0020H.3   0000H.1   UNIT         ?BI?_IAP_ERASEPAGE?IAP_FLASH
            BIT     0020H.4   0000H.1   UNIT         ?BI?_IAP_WRITEBUF_WITH_PROTECT_VERIFY?IAP_FLASH
            BIT     0020H.5   0000H.1   UNIT         ?BI?_IAP_WRITE_BYTE?IAP_FLASH
            BIT     0020H.6   0000H.1   UNIT         ?BI?RAM
                    0020H.7   0000H.1                *** GAP ***
            DATA    0021H     0007H     UNIT         ?DT?_ML7345_FREQUENCY_CALCUL?ML7345_HAL
            DATA    0028H     0005H     UNIT         ?DT?_ML7345_WRITE_FIFO?SPI
            DATA    002DH     0005H     UNIT         ?DT?_ML7345_READ_FIFO?SPI
            DATA    0032H     0005H     UNIT         ?DT?_RF_ML7345_INIT?ML7345
            DATA    0037H     0004H     UNIT         ?DT?_SEND_DATA?UART
            DATA    003BH     0004H     UNIT         ?DT?_ID_SCX1801_EEPROM_WRITE?IAP_FLASH
            DATA    003FH     0004H     UNIT         ?DT?_DELETE_GENERALID_EEPROM?IAP_FLASH
            DATA    0043H     0004H     UNIT         ?DT?_BEEP_MODULE?ID_DECODE
            DATA    0047H     0004H     UNIT         ?DT?_ML7345_FREQUENCY_SET?ML7345_HAL
            DATA    004BH     0004H     UNIT         ?DT?_ML7345_READRX_PACK?ML7345_HAL
            DATA    004FH     0004H     UNIT         ?DT?_ML7345_AUTOTX_DATA?ML7345_HAL
            DATA    0053H     0003H     UNIT         ?DT?_ASC_HEX_2?UART
            DATA    0056H     0003H     UNIT         ?DT?_IAP_WRITE_BYTE?IAP_FLASH
            DATA    0059H     0003H     UNIT         ?DT?ML7345
            DATA    005CH     0002H     UNIT         ?DT?_IAP_WRITEPPAGE?IAP_FLASH
            DATA    005EH     0002H     UNIT         ?DT?_ML7345_WRITE_REG?SPI
            DATA    0060H     0001H     UNIT         ?DT?_DELAY_MS?TIMER
            DATA    0061H     0001H     UNIT         ?DT?_UART0SENDBYTE?UART
            DATA    0062H     0001H     UNIT         ?DT?_ASC_HEX?UART
            DATA    0063H     0001H     UNIT         ?DT?_HEX_ASC?UART
            DATA    0064H     0001H     UNIT         ?DT?_RECEIVEFRAME?UART
            DATA    0065H     0001H     UNIT         ?DT?_IAP_ERASEPAGE?IAP_FLASH
            DATA    0066H     0001H     UNIT         ?DT?_SPI1_SENDRECV_DATA?SPI
            DATA    0067H     0001H     UNIT         ?DT?_ML7345_READ_REG?SPI
            DATA    0068H     0001H     UNIT         ?DT?_SIGNAL_DATA_DECODE?ID_DECODE
            DATA    0069H     0001H     UNIT         ?DT?_RETURN_ID_DATA?ID_DECODE
            DATA    006AH     0001H     UNIT         ?DT?_TX_DATA_TEST?ML7345
            DATA    006BH     0001H     UNIT         ?DT?_ML7345_AUTOSTATETRANSITION_SET?ML7345_HAL
            DATA    006CH     0001H     UNIT         ?DT?_ML7345_SETANDGET_STATE?ML7345_HAL
            DATA    006DH     0001H     UNIT         ?DT?_ML7345_STATEFLAG_CLEAR?ML7345_HAL
            IDATA   006EH     0022H     UNIT         ?ID?RAM
            IDATA   0090H     0011H     UNIT         ?ID?ID_EEPROM_WRITE?IAP_FLASH
            IDATA   00A1H     000FH     UNIT         ?ID?_DELETE_GENERALID_EEPROM?IAP_FLASH
            IDATA   00B0H     000EH     UNIT         ?ID?EEPROM_SYS_LOAD?IAP_FLASH
            IDATA   00BEH     0008H     UNIT         ?ID?_RETURN_ID_DATA?ID_DECODE
            IDATA   00C6H     0007H     UNIT         ?ID?_ID_SCX1801_EEPROM_WRITE?IAP_FLASH
            IDATA   00CDH     0003H     UNIT         ?ID?UART
            IDATA   00D0H     0002H     UNIT         ?ID?TIMER
            IDATA   00D2H     0002H     UNIT         ?ID?ALL_ID_EEPROM_ERASE?IAP_FLASH
            IDATA   00D4H     0002H     UNIT         ?ID?_BEEP_MODULE?ID_DECODE
BL51 BANKED LINKER/LOCATER V6.22.2.0                                                  03/01/2022  16:31:57  PAGE 3


            IDATA   00D6H     0002H     UNIT         ?ID?RECEIVER_BEEP?ID_DECODE
            IDATA   00D8H     0001H     UNIT         ?ID?INT_UART0?UART
            IDATA   00D9H     0001H     UNIT         ?ID?OPRATIONFRAME?UART
            IDATA   00DAH     0001H     UNIT         ?ID?ML7345_TRX_DEL?ML7345
            IDATA   00DBH     0001H     UNIT         ?ID?RF_SYNCWORD_DONE?ML7345_HAL
            IDATA   00DCH     0001H     UNIT         ?STACK

            * * * * * * *  X D A T A   M E M O R Y  * * * * * * *
            XDATA   0000H     03B5H     UNIT         ?XD?RAM
            XDATA   03B5H     0209H     UNIT         ?XD?IAP_FLASH
            XDATA   05BEH     0085H     UNIT         ?XD?ML7345
            XDATA   0643H     007BH     UNIT         ?XD?UART
            XDATA   06BEH     001AH     UNIT         ?XD?ID_DECODE
            XDATA   06D8H     000CH     UNIT         ?XD?ML7345_HAL
            XDATA   06E4H     0003H     UNIT         ?XD?SPI

            * * * * * * *   C O D E   M E M O R Y   * * * * * * *
            CODE    0000H     0003H     ABSOLUTE     
            CODE    0003H     0003H     ABSOLUTE     
            CODE    0006H     0005H     UNIT         ?PR?BEEP_OFF?TIMER
            CODE    000BH     0003H     ABSOLUTE     
            CODE    000EH     0004H     UNIT         ?PR?CLEARWDT?SYS
                    0012H     0001H                  *** GAP ***
            CODE    0013H     0003H     ABSOLUTE     
            CODE    0016H     000CH     UNIT         ?PR?INIT_INT0?GPIO
                    0022H     0001H                  *** GAP ***
            CODE    0023H     0003H     ABSOLUTE     
            CODE    0026H     0B9CH     UNIT         ?PR?PC_PRG?UART
            CODE    0BC2H     0AD3H     UNIT         ?PR?ID_DECODE_OUT?ID_DECODE
            CODE    1695H     07A9H     UNIT         ?PR?APP_TX_PACKET?ML7345
            CODE    1E3EH     07A5H     UNIT         ?PR?ID_LEARN?IAP_FLASH
            CODE    25E3H     078FH     UNIT         ?C?LIB_CODE
            CODE    2D72H     05BEH     UNIT         ?PR?ID_DECODE_IDCHECK?ID_DECODE
            CODE    3330H     05B3H     UNIT         ?C_INITSEG
            CODE    38E3H     0564H     UNIT         ?PR?EEPROM_SYS_LOAD?IAP_FLASH
            CODE    3E47H     04CDH     UNIT         ?PR?_TX_DATALOAD_HIGHSPEED?ML7345
            CODE    4314H     03CFH     UNIT         ?PR?_RF_ML7345_INIT?ML7345
            CODE    46E3H     038FH     UNIT         ?PR?_SIGNAL_DATA_DECODE?ID_DECODE
            CODE    4A72H     032BH     UNIT         ?PR?OPRATIONFRAME?UART
            CODE    4D9DH     0312H     UNIT         ?PR?ML7345D_RF_TEST_MODE?ML7345
            CODE    50AFH     0282H     UNIT         ?PR?_ML7345_FREQUENCY_CALCUL?ML7345_HAL
            CODE    5331H     0274H     UNIT         ?PR?ID_EEPROM_WRITE?IAP_FLASH
            CODE    55A5H     026EH     UNIT         ?PR?_DELETE_GENERALID_EEPROM?IAP_FLASH
            CODE    5813H     022CH     UNIT         ?PR?_IAP_WRITEBUF_WITH_PROTECT_VERIFY?IAP_FLASH
            CODE    5A3FH     01F2H     UNIT         ?PR?EEPROM_IDCHECK?ID_DECODE
            CODE    5C31H     01BEH     UNIT         ?PR?ML7345_TRX_DEL?ML7345
            CODE    5DEFH     0178H     UNIT         ?PR?_ML7345_FREQUENCY_SET?ML7345_HAL
            CODE    5F67H     014AH     UNIT         ?PR?INT_T0?TIMER
            CODE    60B1H     0129H     UNIT         ?PR?RX_ANALYSIS?ML7345
            CODE    61DAH     0127H     UNIT         ?PR?ML7345D_CHANGE_CHANNEL?ML7345
            CODE    6301H     0127H     UNIT         ?PR?ML7345D_FREQ_SCANNING?ML7345
            CODE    6428H     011AH     UNIT         ?PR?MAIN?MAIN
            CODE    6542H     010DH     UNIT         ?PR?SCAN_RECEIVE_PACKET?ML7345
            CODE    664FH     00FCH     UNIT         ?PR?_RECEIVEFRAME?UART
            CODE    674BH     00EFH     UNIT         ?PR?_ML7345_SETANDGET_STATE?ML7345_HAL
            CODE    683AH     00EDH     UNIT         ?PR?INT_UART0?UART
            CODE    6927H     00D7H     UNIT         ?PR?_BEEP_MODULE?ID_DECODE
BL51 BANKED LINKER/LOCATER V6.22.2.0                                                  03/01/2022  16:31:57  PAGE 4


            CODE    69FEH     00C6H     UNIT         ?PR?ID_LOGIN_EXIT_INITIAL?IAP_FLASH
            CODE    6AC4H     00C5H     UNIT         ?PR?ML7345_DATARATE_SET_4_8K?ML7345_HAL
            CODE    6B89H     00B7H     UNIT         ?PR?ML7345_DATARATE_SET_1_2K?ML7345_HAL
            CODE    6C40H     0097H     UNIT         ?PR?IAP_ERASE_ALL_ID?IAP_FLASH
            CODE    6CD7H     008CH     UNIT         ?C_C51STARTUP
            CODE    6D63H     007FH     UNIT         ?PR?DATARECEIVE?ML7345
            CODE    6DE2H     0077H     UNIT         ?PR?_ML7345_WRITE_FIFO?SPI
            CODE    6E59H     0077H     UNIT         ?PR?UART_RF_BER_TEST?ML7345
            CODE    6ED0H     0074H     UNIT         ?PR?_ID_SCX1801_EEPROM_WRITE?IAP_FLASH
            CODE    6F44H     0066H     UNIT         ?PR?INIT_PORT?GPIO
            CODE    6FAAH     0064H     UNIT         ?PR?_RETURN_ID_DATA?ID_DECODE
            CODE    700EH     0062H     UNIT         ?PR?_ML7345_READ_FIFO?SPI
            CODE    7070H     005CH     UNIT         ?PR?TRANMISSIONACK?UART
            CODE    70CCH     0055H     UNIT         ?PR?TEST_BEEP?ID_DECODE
            CODE    7121H     0051H     UNIT         ?PR?RF_BER_TEST?ML7345
            CODE    7172H     004FH     UNIT         ?PR?_TX_DATA_TEST?ML7345
            CODE    71C1H     004EH     UNIT         ?PR?INT_INT0?GPIO
            CODE    720FH     004EH     UNIT         ?PR?INT_INT1?GPIO
            CODE    725DH     004AH     UNIT         ?PR?RECEIVER_BEEP?ID_DECODE
            CODE    72A7H     0045H     UNIT         ?PR?INIT_PCA_PWM?TIMER
            CODE    72ECH     0044H     UNIT         ?C?LDIV
            CODE    7330H     0041H     UNIT         ?PR?WAITSTATUS_COMPLETE?ML7345_HAL
            CODE    7371H     0040H     UNIT         ?PR?ALL_ID_EEPROM_ERASE?IAP_FLASH
            CODE    73B1H     0040H     UNIT         ?PR?ML7345_MEASURBER_INIT?ML7345
            CODE    73F1H     0040H     UNIT         ?PR?_ML7345_AUTOTX_DATA?ML7345_HAL
            CODE    7431H     003DH     UNIT         ?PR?_SEND_DATA?UART
            CODE    746EH     003CH     UNIT         ?PR?INIT_CLOCK?SYS
            CODE    74AAH     003AH     UNIT         ?PR?_ML7345_READ_REG?SPI
            CODE    74E4H     0039H     UNIT         ?PR?_ML7345_STATEFLAG_CLEAR?ML7345_HAL
            CODE    751DH     0038H     UNIT         ?PR?_IAP_WRITE_BYTE?IAP_FLASH
            CODE    7555H     0032H     UNIT         ?PR?INIT_UART0_T1_ODD?UART
            CODE    7587H     0032H     UNIT         ?PR?SETREG_RSSI?ML7345_HAL
            CODE    75B9H     0031H     UNIT         ?PR?_ML7345_WRITE_REG?SPI
            CODE    75EAH     0030H     UNIT         ?PR?_HEX_ASC?UART
            CODE    761AH     0030H     UNIT         ?PR?_ML7345_READRX_PACK?ML7345_HAL
            CODE    764AH     002FH     UNIT         ?PR?_ML7345_AUTOSTATETRANSITION_SET?ML7345_HAL
            CODE    7679H     002DH     UNIT         ?PR?_ASC_HEX?UART
            CODE    76A6H     002BH     UNIT         ?PR?_IAP_WRITEPPAGE?IAP_FLASH
            CODE    76D1H     0028H     UNIT         ?PR?BEEP_AND_LED?ID_DECODE
            CODE    76F9H     0026H     UNIT         ?PR?_IAP_ERASEPAGE?IAP_FLASH
            CODE    771FH     0022H     UNIT         ?PR?INIT_SPI?SPI
            CODE    7741H     0020H     UNIT         ?PR?_DELAY_MS?TIMER
            CODE    7761H     001FH     UNIT         ?PR?INIT_TIMER0?TIMER
            CODE    7780H     001EH     UNIT         ?PR?_ASC_HEX_2?UART
            CODE    779EH     001DH     UNIT         ?PR?ML7345_ALLSTATEFLAG_CLEAR?ML7345_HAL
            CODE    77BBH     001BH     UNIT         ?PR?_SPI1_SENDRECV_DATA?SPI
            CODE    77D6H     0019H     UNIT         ?PR?RF_SYNCWORD_DONE?ML7345_HAL
            CODE    77EFH     0016H     UNIT         ?PR?ML7345_GPIO0TXDONEINT_ENABLE?ML7345_HAL
            CODE    7805H     0016H     UNIT         ?PR?ML7345_GPIO0RXDONEINT_ENABLE?ML7345_HAL
            CODE    781BH     0015H     UNIT         ?PR?_DELAYXUS?TIMER
            CODE    7830H     0015H     UNIT         ?PR?_UART0SENDBYTE?UART
            CODE    7845H     0014H     UNIT         ?PR?INIT_WDT?SYS
            CODE    7859H     000FH     UNIT         ?CO?IAP_FLASH
            CODE    7868H     000EH     UNIT         ?CO?UART
            CODE    7876H     000CH     UNIT         ?PR?INIT_INT1?GPIO
            CODE    7882H     000BH     UNIT         ?PR?INIT_IAP_FLASH?IAP_FLASH
            CODE    788DH     000AH     UNIT         ?PR?INIT_INTERRUPT?GPIO
BL51 BANKED LINKER/LOCATER V6.22.2.0                                                  03/01/2022  16:31:57  PAGE 5


            CODE    7897H     000AH     UNIT         ?PR?ML7345_RESETN_SET?ML7345_HAL
            CODE    78A1H     0004H     UNIT         ?PR?INIT_BEEP?TIMER
            CODE    78A5H     0003H     UNIT         ?PR?BEEP_ON?TIMER



OVERLAY MAP OF MODULE:   .\Objects\CRX1831DCM_MA82G5B32_Pro (MAIN)


SEGMENT
  +--> CALLED SEGMENT
---------------------
?PR?INT_INT0?GPIO
  +--> ?PR?ML7345_TRX_DEL?ML7345
  +--> ?PR?DATARECEIVE?ML7345

?PR?ML7345_TRX_DEL?ML7345
  +--> ?PR?RF_SYNCWORD_DONE?ML7345_HAL
  +--> ?PR?_ML7345_SETANDGET_STATE?ML7345_HAL
  +--> ?PR?_RF_ML7345_INIT?ML7345
  +--> ?PR?ML7345_GPIO0RXDONEINT_ENABLE?ML73...
  +--> ?PR?_ML7345_WRITE_REG?SPI
  +--> ?PR?_ML7345_READ_REG?SPI
  +--> ?PR?_ML7345_STATEFLAG_CLEAR?ML7345_HAL

?PR?RF_SYNCWORD_DONE?ML7345_HAL
  +--> ?PR?_ML7345_WRITE_REG?SPI
  +--> ?PR?_ML7345_READ_REG?SPI

?PR?_ML7345_WRITE_REG?SPI
  +--> ?PR?_DELAYXUS?TIMER
  +--> ?PR?_SPI1_SENDRECV_DATA?SPI

?PR?_ML7345_READ_REG?SPI
  +--> ?PR?_DELAYXUS?TIMER
  +--> ?PR?_SPI1_SENDRECV_DATA?SPI

?PR?_ML7345_SETANDGET_STATE?ML7345_HAL
  +--> ?PR?_ML7345_WRITE_REG?SPI
  +--> ?PR?_ML7345_READ_REG?SPI
  +--> ?PR?WAITSTATUS_COMPLETE?ML7345_HAL
  +--> ?PR?_ML7345_FREQUENCY_CALCUL?ML7345_HAL
  +--> ?PR?CLEARWDT?SYS
  +--> ?PR?_RF_ML7345_INIT?ML7345

?PR?WAITSTATUS_COMPLETE?ML7345_HAL
  +--> ?PR?_ML7345_WRITE_REG?SPI
  +--> ?PR?_ML7345_READ_REG?SPI
  +--> ?PR?CLEARWDT?SYS

?PR?_RF_ML7345_INIT?ML7345
  +--> ?PR?ML7345_RESETN_SET?ML7345_HAL
  +--> ?PR?_ML7345_READ_REG?SPI
  +--> ?PR?_ML7345_WRITE_REG?SPI
  +--> ?PR?SETREG_RSSI?ML7345_HAL
  +--> ?PR?ML7345_DATARATE_SET_4_8K?ML7345_HAL
  +--> ?PR?ML7345_DATARATE_SET_1_2K?ML7345_HAL
BL51 BANKED LINKER/LOCATER V6.22.2.0                                                  03/01/2022  16:31:57  PAGE 6


  +--> ?PR?ML7345_ALLSTATEFLAG_CLEAR?ML7345_HAL

?PR?ML7345_RESETN_SET?ML7345_HAL
  +--> ?PR?_DELAY_MS?TIMER

?PR?_DELAY_MS?TIMER
  +--> ?PR?_DELAYXUS?TIMER

?PR?SETREG_RSSI?ML7345_HAL
  +--> ?PR?_ML7345_WRITE_REG?SPI

?PR?ML7345_DATARATE_SET_4_8K?ML7345_HAL
  +--> ?PR?_ML7345_WRITE_REG?SPI

?PR?ML7345_DATARATE_SET_1_2K?ML7345_HAL
  +--> ?PR?_ML7345_WRITE_REG?SPI

?PR?ML7345_ALLSTATEFLAG_CLEAR?ML7345_HAL
  +--> ?PR?_ML7345_WRITE_REG?SPI

?PR?ML7345_GPIO0RXDONEINT_ENABLE?ML73...
  +--> ?PR?_ML7345_WRITE_REG?SPI

?PR?_ML7345_STATEFLAG_CLEAR?ML7345_HAL
  +--> ?PR?_ML7345_WRITE_REG?SPI

*** NEW ROOT ***************************************************

?PR?INT_INT1?GPIO
  +--> ?PR?ML7345_TRX_DEL?ML7345
  +--> ?PR?DATARECEIVE?ML7345

*** NEW ROOT ***************************************************

?PR?INT_UART0?UART
  +--> ?PR?_RECEIVEFRAME?UART

?PR?_RECEIVEFRAME?UART
  +--> ?PR?OPRATIONFRAME?UART

*** NEW ROOT ***************************************************

?C_C51STARTUP
  +--> ?PR?MAIN?MAIN
  +--> ?C_INITSEG

?PR?MAIN?MAIN
  +--> ?PR?INIT_WDT?SYS
  +--> ?PR?INIT_CLOCK?SYS
  +--> ?PR?CLEARWDT?SYS
  +--> ?PR?INIT_IAP_FLASH?IAP_FLASH
  +--> ?PR?EEPROM_SYS_LOAD?IAP_FLASH
  +--> ?PR?INIT_PORT?GPIO
  +--> ?PR?INIT_TIMER0?TIMER
  +--> ?PR?INIT_UART0_T1_ODD?UART
  +--> ?PR?INIT_BEEP?TIMER
  +--> ?PR?INIT_SPI?SPI
BL51 BANKED LINKER/LOCATER V6.22.2.0                                                  03/01/2022  16:31:57  PAGE 7


  +--> ?PR?_RF_ML7345_INIT?ML7345
  +--> ?PR?INIT_INTERRUPT?GPIO
  +--> ?PR?ML7345D_RF_TEST_MODE?ML7345
  +--> ?PR?_ML7345_SETANDGET_STATE?ML7345_HAL
  +--> ?PR?TEST_BEEP?ID_DECODE
  +--> ?PR?ID_DECODE_OUT?ID_DECODE
  +--> ?PR?ID_LEARN?IAP_FLASH
  +--> ?PR?APP_TX_PACKET?ML7345
  +--> ?PR?ML7345D_FREQ_SCANNING?ML7345
  +--> ?PR?SCAN_RECEIVE_PACKET?ML7345
  +--> ?PR?TRANMISSIONACK?UART

?PR?INIT_IAP_FLASH?IAP_FLASH
  +--> ?PR?_IAP_WRITEPPAGE?IAP_FLASH

?PR?EEPROM_SYS_LOAD?IAP_FLASH
  +--> ?CO?IAP_FLASH
  +--> ?PR?CLEARWDT?SYS
  +--> ?PR?_ML7345_FREQUENCY_CALCUL?ML7345_HAL

?PR?INIT_BEEP?TIMER
  +--> ?PR?INIT_PCA_PWM?TIMER

?PR?INIT_INTERRUPT?GPIO
  +--> ?PR?INIT_INT1?GPIO

?PR?ML7345D_RF_TEST_MODE?ML7345
  +--> ?PR?_BEEP_MODULE?ID_DECODE
  +--> ?PR?CLEARWDT?SYS
  +--> ?PR?_ML7345_SETANDGET_STATE?ML7345_HAL
  +--> ?PR?_ML7345_FREQUENCY_SET?ML7345_HAL
  +--> ?PR?_TX_DATA_TEST?ML7345
  +--> ?PR?ML7345_MEASURBER_INIT?ML7345
  +--> ?PR?RF_BER_TEST?ML7345
  +--> ?PR?PC_PRG?UART
  +--> ?PR?_RF_ML7345_INIT?ML7345
  +--> ?PR?ML7345_GPIO0RXDONEINT_ENABLE?ML73...
  +--> ?PR?ML7345_GPIO0TXDONEINT_ENABLE?ML73...

?PR?_BEEP_MODULE?ID_DECODE
  +--> ?PR?BEEP_ON?TIMER
  +--> ?PR?_DELAYXUS?TIMER
  +--> ?PR?CLEARWDT?SYS
  +--> ?PR?BEEP_OFF?TIMER

?PR?_ML7345_FREQUENCY_SET?ML7345_HAL
  +--> ?PR?_ML7345_SETANDGET_STATE?ML7345_HAL
  +--> ?PR?_ML7345_WRITE_REG?SPI
  +--> ?PR?ML7345_DATARATE_SET_1_2K?ML7345_HAL
  +--> ?PR?ML7345_DATARATE_SET_4_8K?ML7345_HAL
  +--> ?PR?_ML7345_READ_REG?SPI

?PR?_TX_DATA_TEST?ML7345
  +--> ?PR?_ML7345_WRITE_REG?SPI
  +--> ?PR?_ML7345_SETANDGET_STATE?ML7345_HAL

?PR?ML7345_MEASURBER_INIT?ML7345
BL51 BANKED LINKER/LOCATER V6.22.2.0                                                  03/01/2022  16:31:57  PAGE 8


  +--> ?PR?_ML7345_WRITE_REG?SPI

?PR?PC_PRG?UART
  +--> ?CO?UART
  +--> ?PR?_ML7345_SETANDGET_STATE?ML7345_HAL
  +--> ?PR?_SEND_DATA?UART
  +--> ?PR?_ML7345_FREQUENCY_SET?ML7345_HAL
  +--> ?PR?_TX_DATA_TEST?ML7345
  +--> ?PR?ALL_ID_EEPROM_ERASE?IAP_FLASH
  +--> ?PR?_ID_SCX1801_EEPROM_WRITE?IAP_FLASH
  +--> ?PR?_HEX_ASC?UART
  +--> ?PR?_ASC_HEX_2?UART
  +--> ?PR?_IAP_WRITEBUF_WITH_PROTECT_VERIFY...
  +--> ?PR?_ML7345_FREQUENCY_CALCUL?ML7345_HAL
  +--> ?PR?ML7345_MEASURBER_INIT?ML7345
  +--> ?PR?UART_RF_BER_TEST?ML7345

?PR?_SEND_DATA?UART
  +--> ?PR?_UART0SENDBYTE?UART

?PR?ALL_ID_EEPROM_ERASE?IAP_FLASH
  +--> ?PR?CLEARWDT?SYS
  +--> ?PR?IAP_ERASE_ALL_ID?IAP_FLASH

?PR?IAP_ERASE_ALL_ID?IAP_FLASH
  +--> ?CO?IAP_FLASH
  +--> ?PR?_IAP_ERASEPAGE?IAP_FLASH
  +--> ?PR?CLEARWDT?SYS
  +--> ?PR?_IAP_WRITE_BYTE?IAP_FLASH

?PR?_ID_SCX1801_EEPROM_WRITE?IAP_FLASH
  +--> ?CO?IAP_FLASH
  +--> ?PR?_IAP_WRITEBUF_WITH_PROTECT_VERIFY...

?PR?_IAP_WRITEBUF_WITH_PROTECT_VERIFY...
  +--> ?PR?CLEARWDT?SYS

?PR?_ASC_HEX_2?UART
  +--> ?PR?_ASC_HEX?UART

?PR?ML7345_GPIO0TXDONEINT_ENABLE?ML73...
  +--> ?PR?_ML7345_WRITE_REG?SPI

?PR?TEST_BEEP?ID_DECODE
  +--> ?PR?_BEEP_MODULE?ID_DECODE
  +--> ?PR?BEEP_ON?TIMER

?PR?ID_DECODE_OUT?ID_DECODE
  +--> ?PR?_SEND_DATA?UART
  +--> ?PR?RECEIVER_BEEP?ID_DECODE

?PR?RECEIVER_BEEP?ID_DECODE
  +--> ?PR?_BEEP_MODULE?ID_DECODE

?PR?ID_LEARN?IAP_FLASH
  +--> ?PR?_BEEP_MODULE?ID_DECODE
  +--> ?PR?ID_LOGIN_EXIT_INITIAL?IAP_FLASH
BL51 BANKED LINKER/LOCATER V6.22.2.0                                                  03/01/2022  16:31:57  PAGE 9


  +--> ?PR?BEEP_OFF?TIMER
  +--> ?PR?BEEP_ON?TIMER
  +--> ?PR?BEEP_AND_LED?ID_DECODE
  +--> ?PR?_ID_SCX1801_EEPROM_WRITE?IAP_FLASH
  +--> ?PR?_DELETE_GENERALID_EEPROM?IAP_FLASH
  +--> ?PR?ID_EEPROM_WRITE?IAP_FLASH
  +--> ?PR?ALL_ID_EEPROM_ERASE?IAP_FLASH

?PR?ID_LOGIN_EXIT_INITIAL?IAP_FLASH
  +--> ?PR?_BEEP_MODULE?ID_DECODE
  +--> ?PR?BEEP_OFF?TIMER

?PR?BEEP_AND_LED?ID_DECODE
  +--> ?PR?_BEEP_MODULE?ID_DECODE
  +--> ?PR?BEEP_OFF?TIMER

?PR?_DELETE_GENERALID_EEPROM?IAP_FLASH
  +--> ?CO?IAP_FLASH
  +--> ?PR?_RETURN_ID_DATA?ID_DECODE
  +--> ?PR?CLEARWDT?SYS
  +--> ?PR?ALL_ID_EEPROM_ERASE?IAP_FLASH
  +--> ?PR?_IAP_WRITEBUF_WITH_PROTECT_VERIFY...

?PR?ID_EEPROM_WRITE?IAP_FLASH
  +--> ?CO?IAP_FLASH
  +--> ?PR?_IAP_WRITEBUF_WITH_PROTECT_VERIFY...
  +--> ?PR?CLEARWDT?SYS
  +--> ?PR?ID_LOGIN_EXIT_INITIAL?IAP_FLASH

?PR?APP_TX_PACKET?ML7345
  +--> ?PR?_TX_DATALOAD_HIGHSPEED?ML7345
  +--> ?PR?_ML7345_SETANDGET_STATE?ML7345_HAL
  +--> ?PR?_ML7345_WRITE_REG?SPI
  +--> ?PR?ML7345_GPIO0TXDONEINT_ENABLE?ML73...
  +--> ?PR?_ML7345_AUTOTX_DATA?ML7345_HAL
  +--> ?PR?_RF_ML7345_INIT?ML7345

?PR?_TX_DATALOAD_HIGHSPEED?ML7345
  +--> ?PR?CLEARWDT?SYS

?PR?_ML7345_AUTOTX_DATA?ML7345_HAL
  +--> ?PR?_ML7345_WRITE_REG?SPI
  +--> ?PR?_ML7345_AUTOSTATETRANSITION_SET?M...
  +--> ?PR?_ML7345_WRITE_FIFO?SPI

?PR?_ML7345_AUTOSTATETRANSITION_SET?M...
  +--> ?PR?_ML7345_WRITE_REG?SPI

?PR?_ML7345_WRITE_FIFO?SPI
  +--> ?PR?_DELAYXUS?TIMER
  +--> ?PR?_SPI1_SENDRECV_DATA?SPI

?PR?ML7345D_FREQ_SCANNING?ML7345
  +--> ?PR?ML7345D_CHANGE_CHANNEL?ML7345
  +--> ?PR?_RF_ML7345_INIT?ML7345
  +--> ?PR?ML7345_GPIO0RXDONEINT_ENABLE?ML73...
  +--> ?PR?_ML7345_SETANDGET_STATE?ML7345_HAL
BL51 BANKED LINKER/LOCATER V6.22.2.0                                                  03/01/2022  16:31:57  PAGE 10



?PR?ML7345D_CHANGE_CHANNEL?ML7345
  +--> ?PR?_ML7345_FREQUENCY_SET?ML7345_HAL

?PR?SCAN_RECEIVE_PACKET?ML7345
  +--> ?PR?_ML7345_READRX_PACK?ML7345_HAL
  +--> ?PR?_ML7345_STATEFLAG_CLEAR?ML7345_HAL
  +--> ?PR?RX_ANALYSIS?ML7345
  +--> ?PR?_ML7345_SETANDGET_STATE?ML7345_HAL
  +--> ?PR?_ML7345_READ_REG?SPI
  +--> ?PR?_ML7345_WRITE_REG?SPI

?PR?_ML7345_READRX_PACK?ML7345_HAL
  +--> ?PR?_ML7345_WRITE_REG?SPI
  +--> ?PR?_ML7345_READ_FIFO?SPI

?PR?_ML7345_READ_FIFO?SPI
  +--> ?PR?_DELAYXUS?TIMER
  +--> ?PR?_SPI1_SENDRECV_DATA?SPI

?PR?RX_ANALYSIS?ML7345
  +--> ?PR?ID_DECODE_IDCHECK?ID_DECODE

?PR?ID_DECODE_IDCHECK?ID_DECODE
  +--> ?PR?_SIGNAL_DATA_DECODE?ID_DECODE
  +--> ?PR?EEPROM_IDCHECK?ID_DECODE
  +--> ?PR?BEEP_AND_LED?ID_DECODE
  +--> ?PR?ID_EEPROM_WRITE?IAP_FLASH
  +--> ?PR?_ID_SCX1801_EEPROM_WRITE?IAP_FLASH
  +--> ?PR?_RETURN_ID_DATA?ID_DECODE
  +--> ?PR?_DELETE_GENERALID_EEPROM?IAP_FLASH

?PR?EEPROM_IDCHECK?ID_DECODE
  +--> ?PR?_RETURN_ID_DATA?ID_DECODE

?PR?TRANMISSIONACK?UART
  +--> ?PR?_SEND_DATA?UART



SYMBOL TABLE OF MODULE:  .\Objects\CRX1831DCM_MA82G5B32_Pro (MAIN)

  VALUE           TYPE          NAME
  ----------------------------------

  -------         MODULE        MAIN
  C:0000H         SYMBOL        _ICE_DUMMY_
  D:0090H         PUBLIC        P1
  D:00A0H         PUBLIC        P2
  D:00C0H         PUBLIC        XICON
  D:00B0H         PUBLIC        P3
  D:00E8H         PUBLIC        P4
  D:00F8H         PUBLIC        P5
  D:00F8H         PUBLIC        P6
  B:00A8H.7       PUBLIC        EA
  D:00A8H         PUBLIC        IE
  D:00B8H         PUBLIC        IP0L
BL51 BANKED LINKER/LOCATER V6.22.2.0                                                  03/01/2022  16:31:57  PAGE 11


  D:00D8H         PUBLIC        CCON
  C:6428H         PUBLIC        main
  B:00A0H.2       PUBLIC        P22
  B:00A0H.3       PUBLIC        P23
  D:0088H         PUBLIC        TCON
  B:00B0H.5       PUBLIC        P35
  D:0098H         PUBLIC        S0CON
  D:0098H         PUBLIC        S1CON
  D:00C8H         PUBLIC        T2CON
  D:00D0H         PUBLIC        PSW
  -------         PROC          MAIN
  C:6428H         LINE#         22
  C:6428H         LINE#         23
  C:6428H         LINE#         24
  C:642BH         LINE#         25
  C:642EH         LINE#         26
  C:6431H         LINE#         27
  C:6434H         LINE#         28
  C:6437H         LINE#         29
  C:643AH         LINE#         30
  C:643DH         LINE#         31
  C:6440H         LINE#         32
  C:6443H         LINE#         33
  C:6446H         LINE#         34
  C:6449H         LINE#         35
  C:6453H         LINE#         36
  C:6461H         LINE#         37
  C:646BH         LINE#         38
  C:646EH         LINE#         39
  C:6471H         LINE#         40
  C:6473H         LINE#         41
  C:6476H         LINE#         42
  C:6484H         LINE#         43
  C:6492H         LINE#         44
  C:6497H         LINE#         45
  C:649CH         LINE#         46
  C:64A1H         LINE#         47
  C:64A5H         LINE#         49
  C:64A5H         LINE#         50
  C:64A5H         LINE#         51
  C:64A8H         LINE#         52
  C:64B6H         LINE#         54
  C:64C2H         LINE#         55
  C:64C5H         LINE#         56
  C:64C8H         LINE#         57
  C:64E7H         LINE#         58
  C:64FEH         LINE#         59
  C:64FEH         LINE#         60
  C:6501H         LINE#         61
  C:6504H         LINE#         62
  C:6504H         LINE#         63
  C:6507H         LINE#         64
  C:651FH         LINE#         65
  C:6523H         LINE#         66
  C:653CH         LINE#         67
  C:653EH         LINE#         68
  -------         ENDPROC       MAIN
BL51 BANKED LINKER/LOCATER V6.22.2.0                                                  03/01/2022  16:31:57  PAGE 12


  -------         ENDMOD        MAIN

  -------         MODULE        SYS
  C:0000H         SYMBOL        _ICE_DUMMY_
  D:0090H         PUBLIC        P1
  D:00A0H         PUBLIC        P2
  D:00E7H         PUBLIC        ISPCR
  D:00C0H         PUBLIC        XICON
  D:00B0H         PUBLIC        P3
  D:00E8H         PUBLIC        P4
  D:00F8H         PUBLIC        P5
  D:00F8H         PUBLIC        P6
  D:00E1H         PUBLIC        WDTCR
  D:00A8H         PUBLIC        IE
  D:00B8H         PUBLIC        IP0L
  D:00C7H         PUBLIC        CKCON0
  D:00D8H         PUBLIC        CCON
  D:00E6H         PUBLIC        SCMD
  D:00E3H         PUBLIC        IFADRH
  D:00E5H         PUBLIC        IFMT
  D:00E4H         PUBLIC        IFADRL
  D:0088H         PUBLIC        TCON
  D:00E2H         PUBLIC        IFD
  C:000EH         PUBLIC        ClearWDT
  D:0097H         PUBLIC        PCON1
  D:0098H         PUBLIC        S0CON
  C:746EH         PUBLIC        Init_Clock
  D:0098H         PUBLIC        S1CON
  C:7845H         PUBLIC        Init_WDT
  D:00C8H         PUBLIC        T2CON
  D:00D0H         PUBLIC        PSW
  -------         PROC          INIT_CLOCK
  C:746EH         LINE#         4
  C:746EH         LINE#         5
  C:746EH         LINE#         7
  C:7471H         LINE#         8
  C:748DH         LINE#         9
  C:74A9H         LINE#         19
  -------         ENDPROC       INIT_CLOCK
  -------         PROC          INIT_WDT
  C:7845H         LINE#         22
  C:7845H         LINE#         23
  C:7845H         LINE#         24
  C:7848H         LINE#         25
  C:7852H         LINE#         26
  C:7855H         LINE#         27
  C:7858H         LINE#         28
  -------         ENDPROC       INIT_WDT
  -------         PROC          CLEARWDT
  C:000EH         LINE#         30
  C:000EH         LINE#         31
  C:000EH         LINE#         32
  C:0011H         LINE#         33
  -------         ENDPROC       CLEARWDT
  -------         ENDMOD        SYS

  -------         MODULE        GPIO
BL51 BANKED LINKER/LOCATER V6.22.2.0                                                  03/01/2022  16:31:57  PAGE 13


  C:0000H         SYMBOL        _ICE_DUMMY_
  D:0091H         PUBLIC        P1M0
  D:0095H         PUBLIC        P2M0
  D:00B1H         PUBLIC        P3M0
  D:0090H         PUBLIC        P1
  D:00B3H         PUBLIC        P4M0
  D:00B2H         PUBLIC        P3M1
  D:00A0H         PUBLIC        P2
  D:00C0H         PUBLIC        XICON
  D:00B0H         PUBLIC        P3
  D:00E8H         PUBLIC        P4
  D:00F8H         PUBLIC        P5
  D:00F8H         PUBLIC        P6
  D:00A8H         PUBLIC        IE
  C:0016H         PUBLIC        Init_INT0
  C:7876H         PUBLIC        Init_INT1
  D:00B8H         PUBLIC        IP0L
  C:6F44H         PUBLIC        Init_Port
  D:00D8H         PUBLIC        CCON
  B:0090H.0       PUBLIC        P10
  B:00A0H.0       PUBLIC        P20
  B:0090H.1       PUBLIC        P11
  B:00A0H.1       PUBLIC        P21
  B:0090H.2       PUBLIC        P12
  B:00E8H.0       PUBLIC        P40
  B:0090H.3       PUBLIC        P13
  B:00E8H.1       PUBLIC        P41
  D:0088H         PUBLIC        TCON
  B:00A0H.4       PUBLIC        P24
  D:00B4H         PUBLIC        PUCON0
  B:00B0H.4       PUBLIC        P34
  B:00A0H.5       PUBLIC        P25
  B:0090H.6       PUBLIC        P16
  B:00B0H.5       PUBLIC        P35
  B:00A0H.7       PUBLIC        P27
  B:00A8H.4       PUBLIC        ES0
  B:00A8H.1       PUBLIC        ET0
  C:788DH         PUBLIC        Init_Interrupt
  B:0088H.0       PUBLIC        IT0
  B:00A8H.2       PUBLIC        EX1
  B:0088H.2       PUBLIC        IT1
  D:0098H         PUBLIC        S0CON
  D:0098H         PUBLIC        S1CON
  D:00C8H         PUBLIC        T2CON
  C:71C1H         PUBLIC        INT_INT0
  C:720FH         PUBLIC        INT_INT1
  D:00A1H         PUBLIC        AUXR0
  D:00C1H         PUBLIC        XICFG
  D:00D0H         PUBLIC        PSW
  -------         PROC          INIT_PORT
  C:6F44H         LINE#         10
  C:6F44H         LINE#         11
  C:6F44H         LINE#         13
  C:6F47H         LINE#         14
  C:6F4AH         LINE#         15
  C:6F4CH         LINE#         16
  C:6F4FH         LINE#         19
BL51 BANKED LINKER/LOCATER V6.22.2.0                                                  03/01/2022  16:31:57  PAGE 14


  C:6F52H         LINE#         20
  C:6F55H         LINE#         21
  C:6F57H         LINE#         22
  C:6F5AH         LINE#         25
  C:6F5DH         LINE#         26
  C:6F5FH         LINE#         31
  C:6F62H         LINE#         32
  C:6F65H         LINE#         33
  C:6F67H         LINE#         36
  C:6F6AH         LINE#         37
  C:6F6DH         LINE#         38
  C:6F6FH         LINE#         43
  C:6F75H         LINE#         47
  C:6F78H         LINE#         48
  C:6F7CH         LINE#         49
  C:6F7FH         LINE#         57
  C:6F8DH         LINE#         58
  C:6F9BH         LINE#         59
  C:6F9DH         LINE#         60
  C:6F9FH         LINE#         61
  C:6FA1H         LINE#         62
  C:6FA3H         LINE#         63
  C:6FA5H         LINE#         64
  C:6FA7H         LINE#         65
  C:6FA9H         LINE#         66
  -------         ENDPROC       INIT_PORT
  -------         PROC          INIT_INT0
  C:0016H         LINE#         79
  C:0016H         LINE#         80
  C:0016H         LINE#         81
  C:0019H         LINE#         82
  C:001EH         LINE#         84
  C:0021H         LINE#         85
  -------         ENDPROC       INIT_INT0
  -------         PROC          INIT_INT1
  C:7876H         LINE#         96
  C:7876H         LINE#         97
  C:7876H         LINE#         98
  C:7879H         LINE#         100
  C:787EH         LINE#         101
  C:7881H         LINE#         102
  -------         ENDPROC       INIT_INT1
  -------         PROC          INT_INT0
  C:71C1H         LINE#         114
  C:71DEH         LINE#         116
  C:71F1H         LINE#         117
  C:71F4H         LINE#         118
  -------         ENDPROC       INT_INT0
  -------         PROC          INT_INT1
  C:720FH         LINE#         130
  C:722CH         LINE#         132
  C:723FH         LINE#         133
  C:7242H         LINE#         134
  -------         ENDPROC       INT_INT1
  -------         PROC          INIT_INTERRUPT
  C:788DH         LINE#         143
  C:788DH         LINE#         144
BL51 BANKED LINKER/LOCATER V6.22.2.0                                                  03/01/2022  16:31:57  PAGE 15


  C:788DH         LINE#         149
  C:7890H         LINE#         150
  C:7892H         LINE#         152
  C:7894H         LINE#         153
  C:7896H         LINE#         154
  -------         ENDPROC       INIT_INTERRUPT
  -------         ENDMOD        GPIO

  -------         MODULE        TIMER
  C:0000H         SYMBOL        _ICE_DUMMY_
  D:00F2H         PUBLIC        PCAPWM6
  D:0090H         PUBLIC        P1
  D:00A0H         PUBLIC        P2
  D:00C0H         PUBLIC        XICON
  D:00B0H         PUBLIC        P3
  D:00E8H         PUBLIC        P4
  D:00F8H         PUBLIC        P5
  D:00F8H         PUBLIC        P6
  D:00ACH         PUBLIC        SFRPI
  D:00F9H         PUBLIC        CH
  D:00BCH         PUBLIC        PWMCR
  D:00A8H         PUBLIC        IE
  D:00E9H         PUBLIC        CL
  B:00D8H.6       PUBLIC        CR
  D:00B8H         PUBLIC        IP0L
  D:00FAH         PUBLIC        CCAP6H
  D:00EAH         PUBLIC        CCAP6L
  C:78A5H         PUBLIC        Beep_On
  D:00DAH         PUBLIC        CCAPM6
  C:72A7H         PUBLIC        Init_PCA_PWM
  D:00D9H         PUBLIC        CMOD
  D:00D8H         PUBLIC        CCON
  D:00CFH         PUBLIC        CHRL
  C:7761H         PUBLIC        Init_Timer0
  D:00CEH         PUBLIC        CLRL
  B:00A0H.0       PUBLIC        P20
  C:781BH         PUBLIC        _DelayXus
  D:0089H         PUBLIC        TMOD
  D:0088H         PUBLIC        TCON
  D:008CH         PUBLIC        TH0
  C:5F67H         PUBLIC        INT_T0
  D:008AH         PUBLIC        TL0
  C:7741H         PUBLIC        _delay_ms
  B:0088H.4       PUBLIC        TR0
  I:00D0H         PUBLIC        Time_Tx_Out
  D:0098H         PUBLIC        S0CON
  D:0098H         PUBLIC        S1CON
  D:00C8H         PUBLIC        T2CON
  D:00A1H         PUBLIC        AUXR0
  D:00A3H         PUBLIC        AUXR2
  C:78A1H         PUBLIC        Init_Beep
  C:0006H         PUBLIC        Beep_Off
  D:00F2H         PUBLIC        PCAPWM0
  D:00D0H         PUBLIC        PSW
  -------         PROC          INIT_TIMER0
  C:7761H         LINE#         29
  C:7761H         LINE#         30
BL51 BANKED LINKER/LOCATER V6.22.2.0                                                  03/01/2022  16:31:57  PAGE 16


  C:7761H         LINE#         31
  C:776BH         LINE#         33
  C:7774H         LINE#         35
  C:7777H         LINE#         37
  C:777AH         LINE#         38
  C:777DH         LINE#         40
  C:777FH         LINE#         41
  -------         ENDPROC       INIT_TIMER0
  -------         PROC          INT_T0
  C:5F67H         LINE#         51
  C:5F78H         LINE#         53
  C:5F7BH         LINE#         54
  C:5F7EH         LINE#         56
  C:5F8AH         LINE#         57
  C:5F98H         LINE#         58
  C:5FA4H         LINE#         59
  C:5FB2H         LINE#         60
  C:5FBEH         LINE#         61
  C:5FCCH         LINE#         62
  C:5FD7H         LINE#         63
  C:5FDFH         LINE#         64
  C:5FEBH         LINE#         65
  C:5FF9H         LINE#         66
  C:6000H         LINE#         67
  C:6005H         LINE#         69
  C:6005H         LINE#         70
  C:6009H         LINE#         71
  C:6017H         LINE#         72
  C:6017H         LINE#         73
  C:601FH         LINE#         74
  C:6025H         LINE#         75
  C:602DH         LINE#         76
  C:6033H         LINE#         77
  C:603BH         LINE#         78
  C:6041H         LINE#         79
  C:604DH         LINE#         80
  C:605BH         LINE#         81
  C:6067H         LINE#         82
  C:6075H         LINE#         84
  C:6088H         LINE#         85
  C:60A2H         LINE#         86
  -------         ENDPROC       INT_T0
  -------         PROC          INIT_PCA_PWM
  C:72A7H         LINE#         90
  C:72A7H         LINE#         91
  C:72A7H         LINE#         92
  C:72B1H         LINE#         93
  C:72BAH         LINE#         94
  C:72C6H         LINE#         95
  C:72C9H         LINE#         98
  C:72DFH         LINE#         101
  C:72E5H         LINE#         102
  C:72EBH         LINE#         103
  -------         ENDPROC       INIT_PCA_PWM
  -------         PROC          INIT_BEEP
  C:78A1H         LINE#         105
  C:78A1H         LINE#         106
BL51 BANKED LINKER/LOCATER V6.22.2.0                                                  03/01/2022  16:31:57  PAGE 17


  C:78A1H         LINE#         107
  C:78A4H         LINE#         108
  -------         ENDPROC       INIT_BEEP
  -------         PROC          BEEP_ON
  C:78A5H         LINE#         110
  C:78A5H         LINE#         111
  C:78A5H         LINE#         112
  C:78A7H         LINE#         113
  -------         ENDPROC       BEEP_ON
  -------         PROC          BEEP_OFF
  C:0006H         LINE#         115
  C:0006H         LINE#         116
  C:0006H         LINE#         117
  C:0008H         LINE#         118
  C:000AH         LINE#         119
  -------         ENDPROC       BEEP_OFF
  -------         PROC          _DELAYXUS
  D:001FH         SYMBOL        xUs
  C:781BH         LINE#         129
  C:781DH         LINE#         130
  C:781DH         LINE#         131
  C:7825H         LINE#         132
  C:7825H         LINE#         134
  C:7826H         LINE#         135
  C:7827H         LINE#         136
  C:7828H         LINE#         137
  C:7829H         LINE#         138
  C:782AH         LINE#         139
  C:782BH         LINE#         157
  C:782DH         LINE#         158
  C:782FH         LINE#         159
  -------         ENDPROC       _DELAYXUS
  -------         PROC          _DELAY_MS
  D:0060H         SYMBOL        ms
  C:7741H         LINE#         169
  C:7743H         LINE#         170
  C:7743H         LINE#         171
  C:774AH         LINE#         172
  C:774AH         LINE#         173
  C:774FH         LINE#         174
  C:7754H         LINE#         175
  C:7759H         LINE#         176
  C:775EH         LINE#         177
  C:7760H         LINE#         178
  -------         ENDPROC       _DELAY_MS
  -------         ENDMOD        TIMER

  -------         MODULE        UART
  C:0000H         SYMBOL        _ICE_DUMMY_
  D:0090H         PUBLIC        P1
  D:00A0H         PUBLIC        P2
  B:0098H.6       PUBLIC        SM10
  D:00C0H         PUBLIC        XICON
  D:00B0H         PUBLIC        P3
  D:00E8H         PUBLIC        P4
  D:00F8H         PUBLIC        P5
  X:0659H         PUBLIC        Databits_t
BL51 BANKED LINKER/LOCATER V6.22.2.0                                                  03/01/2022  16:31:57  PAGE 18


  D:00F8H         PUBLIC        P6
  D:00ACH         PUBLIC        SFRPI
  X:065DH         PUBLIC        FLAG_testNo91_step
  D:00A8H         PUBLIC        IE
  X:065EH         PUBLIC        FLAG_testNo91SendUart
  D:00B8H         PUBLIC        IP0L
  B:0098H.4       PUBLIC        REN0
  X:065FH         PUBLIC        UART_DATA_buffer
  X:0688H         PUBLIC        UART_DATA_ID98
  X:06B1H         PUBLIC        U1AckTimer
  D:00D8H         PUBLIC        CCON
  X:06B2H         PUBLIC        UartStatus
  X:06B3H         PUBLIC        UartCount
  B:00C8H.5       PUBLIC        RCLK
  B:00C8H.4       PUBLIC        TCLK
  B:0090H.0       PUBLIC        P10
  B:0090H.1       PUBLIC        P11
  B:00A0H.1       PUBLIC        P21
  B:0090H.2       PUBLIC        P12
  B:00A0H.2       PUBLIC        P22
  B:00A0H.3       PUBLIC        P23
  D:0089H         PUBLIC        TMOD
  D:0088H         PUBLIC        TCON
  C:664FH         PUBLIC        _ReceiveFrame
  B:00A0H.5       PUBLIC        P25
  B:00B0H.5       PUBLIC        P35
  B:00A0H.7       PUBLIC        P27
  C:683AH         PUBLIC        INT_UART0
  X:06B4H         PUBLIC        UartLen
  C:4A72H         PUBLIC        OprationFrame
  C:7868H         SYMBOL        _?ix1000
  I:00CDH         PUBLIC        ACKBack
  C:7872H         SYMBOL        _?ix1001
  X:06B5H         PUBLIC        PROFILE_CH_FREQ_32bit_200002EC_uart
  B:00A8H.4       PUBLIC        ES0
  B:0098H.0       PUBLIC        RI0
  B:0098H.1       PUBLIC        TI0
  D:008DH         PUBLIC        TH1
  D:008BH         PUBLIC        TL1
  D:009CH         PUBLIC        S0CFG
  B:0088H.6       PUBLIC        TR1
  X:06B9H         PUBLIC        uart0_rx_len
  X:06BAH         PUBLIC        FLAG_testBEEP
  X:06BBH         PUBLIC        uart0_tx_len
  C:0026H         PUBLIC        PC_PRG
  C:75EAH         PUBLIC        _hex_asc
  C:7679H         PUBLIC        _asc_hex
  D:0099H         PUBLIC        S0BUF
  D:0087H         PUBLIC        PCON0
  C:7555H         PUBLIC        Init_Uart0_T1_ODD
  D:0098H         PUBLIC        S0CON
  D:0098H         PUBLIC        S1CON
  X:06BCH         PUBLIC        FLAG_testNo91
  D:00C8H         PUBLIC        T2CON
  C:7431H         PUBLIC        _Send_Data
  B:0098H.7       PUBLIC        SM00_FE
  C:7070H         PUBLIC        TranmissionACK
BL51 BANKED LINKER/LOCATER V6.22.2.0                                                  03/01/2022  16:31:57  PAGE 19


  C:7780H         PUBLIC        _asc_hex_2
  C:7830H         PUBLIC        _Uart0SendByte
  B:0020H.1       PUBLIC        rx_done
  D:00A3H         PUBLIC        AUXR2
  X:06BDH         PUBLIC        U1Statues
  D:00D0H         PUBLIC        PSW
  -------         PROC          INIT_UART0_T1_ODD
  C:7555H         LINE#         73
  C:7555H         LINE#         74
  C:7555H         LINE#         75
  C:755CH         LINE#         76
  C:755EH         LINE#         78
  C:7565H         LINE#         79
  C:756BH         LINE#         81
  C:7575H         LINE#         82
  C:757BH         LINE#         83
  C:757EH         LINE#         87
  C:7581H         LINE#         88
  C:7584H         LINE#         96
  C:7586H         LINE#         97
  -------         ENDPROC       INIT_UART0_T1_ODD
  -------         PROC          INT_UART0
  -------         DO            
  I:00D8H         SYMBOL        dat
  -------         ENDDO         
  C:683AH         LINE#         108
  C:6857H         LINE#         110
  C:685BH         LINE#         111
  C:685DH         LINE#         113
  C:6860H         LINE#         114
  C:6863H         LINE#         115
  C:6863H         LINE#         116
  C:6865H         LINE#         117
  C:6865H         LINE#         118
  C:686BH         LINE#         119
  C:686BH         LINE#         120
  C:686DH         LINE#         121
  C:6871H         LINE#         122
  C:6889H         LINE#         124
  C:6889H         LINE#         125
  C:6896H         LINE#         126
  C:68ABH         LINE#         127
  C:68BCH         LINE#         128
  C:68C5H         LINE#         129
  C:68C5H         LINE#         130
  C:68D7H         LINE#         131
  C:68D7H         LINE#         132
  C:68F7H         LINE#         133
  C:68FCH         LINE#         134
  C:690AH         LINE#         136
  C:690AH         LINE#         137
  C:690AH         LINE#         138
  C:690AH         LINE#         139
  C:690CH         LINE#         140
  -------         ENDPROC       INT_UART0
  -------         PROC          _UART0SENDBYTE
  D:0061H         SYMBOL        tByte
BL51 BANKED LINKER/LOCATER V6.22.2.0                                                  03/01/2022  16:31:57  PAGE 20


  -------         DO            
  B:0020H.0       SYMBOL        bES
  -------         ENDDO         
  C:7830H         LINE#         148
  C:7832H         LINE#         149
  C:7832H         LINE#         151
  C:7836H         LINE#         152
  C:7838H         LINE#         153
  C:783BH         LINE#         155
  C:783EH         LINE#         156
  C:7840H         LINE#         157
  C:7844H         LINE#         158
  -------         ENDPROC       _UART0SENDBYTE
  -------         PROC          _SEND_DATA
  D:0037H         SYMBOL        buff
  D:003AH         SYMBOL        len
  -------         DO            
  X:0643H         SYMBOL        i
  -------         ENDDO         
  C:7431H         LINE#         161
  C:7439H         LINE#         162
  C:7439H         LINE#         163
  C:743EH         LINE#         164
  C:744EH         LINE#         165
  C:744EH         LINE#         166
  C:7465H         LINE#         167
  C:746DH         LINE#         168
  -------         ENDPROC       _SEND_DATA
  -------         PROC          _ASC_HEX
  D:0062H         SYMBOL        asc
  -------         DO            
  X:0644H         SYMBOL        i
  -------         ENDDO         
  C:7679H         LINE#         170
  C:767BH         LINE#         171
  C:767BH         LINE#         173
  C:768AH         LINE#         174
  C:7696H         LINE#         176
  C:76A0H         LINE#         177
  C:76A5H         LINE#         178
  -------         ENDPROC       _ASC_HEX
  -------         PROC          _HEX_ASC
  D:0063H         SYMBOL        hex
  -------         DO            
  X:0645H         SYMBOL        i
  -------         ENDDO         
  C:75EAH         LINE#         180
  C:75ECH         LINE#         181
  C:75ECH         LINE#         183
  C:75EFH         LINE#         184
  C:75FEH         LINE#         185
  C:760AH         LINE#         187
  C:7614H         LINE#         188
  C:7619H         LINE#         189
  -------         ENDPROC       _HEX_ASC
  -------         PROC          _ASC_HEX_2
  D:0053H         SYMBOL        asc1
BL51 BANKED LINKER/LOCATER V6.22.2.0                                                  03/01/2022  16:31:57  PAGE 21


  D:0054H         SYMBOL        asc0
  -------         DO            
  D:0055H         SYMBOL        i
  -------         ENDDO         
  C:7780H         LINE#         191
  C:7784H         LINE#         192
  C:7784H         LINE#         194
  C:779BH         LINE#         195
  C:779DH         LINE#         196
  -------         ENDPROC       _ASC_HEX_2
  -------         PROC          _RECEIVEFRAME
  D:0064H         SYMBOL        Cache
  C:664FH         LINE#         199
  C:6651H         LINE#         200
  C:6651H         LINE#         201
  C:6664H         LINE#         202
  C:6664H         LINE#         203
  C:6664H         LINE#         204
  C:6664H         LINE#         205
  C:666EH         LINE#         206
  C:6678H         LINE#         207
  C:667EH         LINE#         208
  C:6698H         LINE#         210
  C:6698H         LINE#         211
  C:669EH         LINE#         212
  C:66A4H         LINE#         213
  C:66AEH         LINE#         214
  C:66C5H         LINE#         215
  C:66C5H         LINE#         216
  C:66C5H         LINE#         217
  C:66C7H         LINE#         218
  C:66C7H         LINE#         219
  C:66C7H         LINE#         220
  C:66D9H         LINE#         221
  C:66DFH         LINE#         222
  C:66F2H         LINE#         223
  C:66F8H         LINE#         224
  C:66F8H         LINE#         225
  C:66FAH         LINE#         226
  C:66FAH         LINE#         227
  C:66FFH         LINE#         228
  C:6704H         LINE#         229
  C:6704H         LINE#         230
  C:6704H         LINE#         231
  C:6711H         LINE#         232
  C:6711H         LINE#         234
  C:6714H         LINE#         235
  C:6719H         LINE#         236
  C:671EH         LINE#         238
  C:673EH         LINE#         240
  C:673EH         LINE#         241
  C:6744H         LINE#         242
  C:674AH         LINE#         243
  C:674AH         LINE#         244
  C:674AH         LINE#         245
  -------         ENDPROC       _RECEIVEFRAME
  -------         PROC          OPRATIONFRAME
BL51 BANKED LINKER/LOCATER V6.22.2.0                                                  03/01/2022  16:31:57  PAGE 22


  -------         DO            
  I:00D9H         SYMBOL        i
  -------         ENDDO         
  C:4A72H         LINE#         247
  C:4A72H         LINE#         248
  C:4A72H         LINE#         249
  C:4A76H         LINE#         250
  C:4A8BH         LINE#         251
  C:4AB0H         LINE#         252
  C:4AC0H         LINE#         253
  C:4AC0H         LINE#         254
  C:4ACEH         LINE#         255
  C:4ADAH         LINE#         256
  C:4AE8H         LINE#         260
  C:4B3AH         LINE#         261
  C:4B6CH         LINE#         262
  C:4B7AH         LINE#         263
  C:4B7EH         LINE#         264
  C:4BA6H         LINE#         265
  C:4BA6H         LINE#         266
  C:4BA6H         LINE#         267
  C:4BA6H         LINE#         268
  C:4BA6H         LINE#         269
  C:4BA6H         LINE#         270
  C:4BA6H         LINE#         271
  C:4BA6H         LINE#         272
  C:4BA8H         LINE#         273
  C:4BA8H         LINE#         274
  C:4BADH         LINE#         276
  C:4BADH         LINE#         277
  C:4BADH         LINE#         278
  C:4BD0H         LINE#         279
  C:4BD0H         LINE#         280
  C:4BD0H         LINE#         281
  C:4BD0H         LINE#         282
  C:4BD0H         LINE#         283
  C:4BD0H         LINE#         284
  C:4BD0H         LINE#         285
  C:4BD0H         LINE#         286
  C:4BD2H         LINE#         287
  C:4BD2H         LINE#         288
  C:4BD7H         LINE#         290
  C:4BD7H         LINE#         291
  C:4BD7H         LINE#         292
  C:4C08H         LINE#         293
  C:4C08H         LINE#         294
  C:4C08H         LINE#         295
  C:4C08H         LINE#         296
  C:4C08H         LINE#         297
  C:4C08H         LINE#         298
  C:4C08H         LINE#         299
  C:4C08H         LINE#         300
  C:4C08H         LINE#         301
  C:4C08H         LINE#         302
  C:4C08H         LINE#         303
  C:4C08H         LINE#         304
  C:4C08H         LINE#         305
BL51 BANKED LINKER/LOCATER V6.22.2.0                                                  03/01/2022  16:31:57  PAGE 23


  C:4C08H         LINE#         306
  C:4C09H         LINE#         307
  C:4C09H         LINE#         308
  C:4C0EH         LINE#         310
  C:4C0EH         LINE#         311
  C:4C0EH         LINE#         312
  C:4C0FH         LINE#         313
  C:4C1FH         LINE#         314
  C:4C1FH         LINE#         315
  C:4C24H         LINE#         316
  C:4C29H         LINE#         317
  C:4C63H         LINE#         318
  C:4C71H         LINE#         319
  C:4C8FH         LINE#         320
  C:4C94H         LINE#         321
  C:4C99H         LINE#         322
  C:4C9FH         LINE#         323
  C:4CA0H         LINE#         324
  C:4CADH         LINE#         325
  C:4CADH         LINE#         326
  C:4CD5H         LINE#         327
  C:4CD5H         LINE#         328
  C:4CD9H         LINE#         329
  C:4CDFH         LINE#         330
  C:4CF1H         LINE#         331
  C:4CF7H         LINE#         332
  C:4CFCH         LINE#         333
  C:4D06H         LINE#         334
  C:4D07H         LINE#         336
  C:4D07H         LINE#         337
  C:4D0BH         LINE#         338
  C:4D11H         LINE#         339
  C:4D1BH         LINE#         340
  C:4D21H         LINE#         341
  C:4D21H         LINE#         342
  C:4D22H         LINE#         343
  C:4D2FH         LINE#         344
  C:4D2FH         LINE#         345
  C:4D4EH         LINE#         346
  C:4D4EH         LINE#         347
  C:4D4EH         LINE#         348
  C:4D54H         LINE#         349
  C:4D5EH         LINE#         350
  C:4D5FH         LINE#         351
  C:4D5FH         LINE#         352
  C:4D65H         LINE#         353
  C:4D6FH         LINE#         354
  C:4D70H         LINE#         355
  C:4D70H         LINE#         356
  C:4D76H         LINE#         357
  C:4D80H         LINE#         358
  C:4D81H         LINE#         359
  C:4D81H         LINE#         360
  C:4D87H         LINE#         361
  C:4D88H         LINE#         362
  C:4D88H         LINE#         363
  C:4D8EH         LINE#         364
BL51 BANKED LINKER/LOCATER V6.22.2.0                                                  03/01/2022  16:31:57  PAGE 24


  C:4D8FH         LINE#         365
  C:4D8FH         LINE#         366
  C:4D95H         LINE#         367
  C:4D96H         LINE#         368
  C:4D96H         LINE#         369
  C:4D97H         LINE#         370
  C:4D97H         LINE#         372
  C:4D98H         LINE#         374
  C:4D98H         LINE#         375
  C:4D9CH         LINE#         377
  C:4D9CH         LINE#         378
  -------         ENDPROC       OPRATIONFRAME
  -------         PROC          TRANMISSIONACK
  C:7070H         LINE#         381
  C:7070H         LINE#         382
  C:7070H         LINE#         383
  C:7088H         LINE#         384
  C:7088H         LINE#         385
  C:708EH         LINE#         386
  C:7099H         LINE#         387
  C:709EH         LINE#         388
  C:709EH         LINE#         390
  C:70B6H         LINE#         391
  C:70B6H         LINE#         392
  C:70C1H         LINE#         393
  C:70C6H         LINE#         394
  C:70CBH         LINE#         395
  C:70CBH         LINE#         396
  -------         ENDPROC       TRANMISSIONACK
  -------         PROC          PC_PRG
  -------         DO            
  X:0646H         SYMBOL        send_dat
  X:0650H         SYMBOL        send_ok
  X:0654H         SYMBOL        UART_ID_data
  X:0658H         SYMBOL        re_byte
  -------         ENDDO         
  C:0026H         LINE#         399
  C:0026H         LINE#         400
  C:0026H         LINE#         401
  C:004BH         LINE#         402
  C:0070H         LINE#         404
  C:0075H         LINE#         406
  C:0081H         LINE#         407
  C:0081H         LINE#         408
  C:008FH         LINE#         410
  C:00C4H         LINE#         411
  C:00C4H         LINE#         412
  C:00D0H         LINE#         413
  C:00DCH         LINE#         414
  C:00E8H         LINE#         415
  C:00EAH         LINE#         416
  C:00ECH         LINE#         417
  C:00EEH         LINE#         418
  C:00F0H         LINE#         419
  C:00F2H         LINE#         420
  C:00F4H         LINE#         421
  C:00FCH         LINE#         422
BL51 BANKED LINKER/LOCATER V6.22.2.0                                                  03/01/2022  16:31:57  PAGE 25


  C:0104H         LINE#         423
  C:0109H         LINE#         424
  C:010EH         LINE#         425
  C:0119H         LINE#         426
  C:0119H         LINE#         427
  C:0133H         LINE#         428
  C:0133H         LINE#         429
  C:0155H         LINE#         430
  C:0155H         LINE#         431
  C:0155H         LINE#         432
  C:0162H         LINE#         433
  C:0162H         LINE#         434
  C:017AH         LINE#         435
  C:0186H         LINE#         436
  C:0192H         LINE#         437
  C:0196H         LINE#         438
  C:019BH         LINE#         439
  C:01A6H         LINE#         440
  C:01ABH         LINE#         441
  C:01B6H         LINE#         442
  C:01B6H         LINE#         443
  C:01B9H         LINE#         444
  C:01B9H         LINE#         445
  C:01D7H         LINE#         446
  C:01D7H         LINE#         447
  C:01E3H         LINE#         448
  C:01EFH         LINE#         449
  C:01FBH         LINE#         450
  C:01FDH         LINE#         451
  C:01FFH         LINE#         452
  C:0201H         LINE#         453
  C:0203H         LINE#         454
  C:0205H         LINE#         455
  C:0207H         LINE#         456
  C:020FH         LINE#         457
  C:0217H         LINE#         458
  C:021CH         LINE#         459
  C:0221H         LINE#         460
  C:022CH         LINE#         461
  C:022FH         LINE#         462
  C:0249H         LINE#         463
  C:0249H         LINE#         464
  C:0251H         LINE#         465
  C:0254H         LINE#         466
  C:025EH         LINE#         467
  C:0269H         LINE#         468
  C:0274H         LINE#         469
  C:0274H         LINE#         470
  C:0277H         LINE#         471
  C:0277H         LINE#         472
  C:028BH         LINE#         473
  C:028BH         LINE#         474
  C:02A3H         LINE#         475
  C:02AFH         LINE#         476
  C:02BBH         LINE#         477
  C:02BFH         LINE#         478
  C:02C4H         LINE#         479
BL51 BANKED LINKER/LOCATER V6.22.2.0                                                  03/01/2022  16:31:57  PAGE 26


  C:02CFH         LINE#         480
  C:02D4H         LINE#         481
  C:02DFH         LINE#         482
  C:02E2H         LINE#         483
  C:0300H         LINE#         484
  C:0300H         LINE#         485
  C:0306H         LINE#         486
  C:030CH         LINE#         487
  C:0312H         LINE#         488
  C:0324H         LINE#         489
  C:0335H         LINE#         490
  C:033BH         LINE#         491
  C:0346H         LINE#         492
  C:0349H         LINE#         493
  C:037AH         LINE#         494
  C:037AH         LINE#         495
  C:0386H         LINE#         496
  C:0398H         LINE#         497
  C:039DH         LINE#         498
  C:03A1H         LINE#         499
  C:03B6H         LINE#         500
  C:03B6H         LINE#         501
  C:03C0H         LINE#         502
  C:03D3H         LINE#         503
  C:03FAH         LINE#         504
  C:0411H         LINE#         505
  C:041CH         LINE#         506
  C:0443H         LINE#         507
  C:045AH         LINE#         508
  C:0465H         LINE#         509
  C:0468H         LINE#         510
  C:0495H         LINE#         511
  C:0495H         LINE#         512
  C:049FH         LINE#         513
  C:04B2H         LINE#         514
  C:04B9H         LINE#         515
  C:04E5H         LINE#         516
  C:04FCH         LINE#         517
  C:0507H         LINE#         518
  C:0533H         LINE#         519
  C:054AH         LINE#         520
  C:0555H         LINE#         521
  C:0555H         LINE#         522
  C:055AH         LINE#         523
  C:055AH         LINE#         524
  C:055DH         LINE#         526
  C:055DH         LINE#         527
  C:05A1H         LINE#         528
  C:05A1H         LINE#         529
  C:05A7H         LINE#         530
  C:05ADH         LINE#         531
  C:05B3H         LINE#         532
  C:05B9H         LINE#         533
  C:05BFH         LINE#         534
  C:05D5H         LINE#         535
  C:05E6H         LINE#         536
  C:05ECH         LINE#         537
BL51 BANKED LINKER/LOCATER V6.22.2.0                                                  03/01/2022  16:31:57  PAGE 27


  C:05F7H         LINE#         538
  C:05FAH         LINE#         539
  C:060EH         LINE#         540
  C:060EH         LINE#         541
  C:0610H         LINE#         542
  C:061CH         LINE#         543
  C:0624H         LINE#         544
  C:062CH         LINE#         545
  C:0631H         LINE#         546
  C:0635H         LINE#         547
  C:063AH         LINE#         548
  C:0644H         LINE#         549
  C:064FH         LINE#         550
  C:0652H         LINE#         551
  C:0657H         LINE#         552
  C:0663H         LINE#         553
  C:066EH         LINE#         554
  C:0671H         LINE#         555
  C:068BH         LINE#         556
  C:068BH         LINE#         557
  C:06B9H         LINE#         558
  C:06C6H         LINE#         559
  C:06CCH         LINE#         560
  C:06D2H         LINE#         561
  C:06D8H         LINE#         562
  C:06EEH         LINE#         563
  C:06FFH         LINE#         564
  C:0705H         LINE#         565
  C:070AH         LINE#         566
  C:0715H         LINE#         567
  C:0718H         LINE#         568
  C:0732H         LINE#         569
  C:0732H         LINE#         570
  C:074CH         LINE#         571
  C:074CH         LINE#         572
  C:0751H         LINE#         573
  C:075CH         LINE#         574
  C:0767H         LINE#         575
  C:0772H         LINE#         576
  C:07B6H         LINE#         577
  C:07CAH         LINE#         578
  C:07D0H         LINE#         579
  C:07D6H         LINE#         580
  C:07DCH         LINE#         581
  C:07EEH         LINE#         582
  C:07FFH         LINE#         583
  C:0811H         LINE#         584
  C:0822H         LINE#         585
  C:0834H         LINE#         586
  C:0845H         LINE#         587
  C:084BH         LINE#         588
  C:0856H         LINE#         589
  C:0856H         LINE#         590
  C:0856H         LINE#         591
  C:0859H         LINE#         592
  C:0859H         LINE#         593
  C:0873H         LINE#         594
BL51 BANKED LINKER/LOCATER V6.22.2.0                                                  03/01/2022  16:31:57  PAGE 28


  C:0873H         LINE#         595
  C:0879H         LINE#         596
  C:087FH         LINE#         597
  C:0885H         LINE#         598
  C:088AH         LINE#         599
  C:089CH         LINE#         600
  C:08B2H         LINE#         601
  C:08C3H         LINE#         602
  C:08C9H         LINE#         603
  C:08D4H         LINE#         604
  C:08D4H         LINE#         605
  C:08D7H         LINE#         606
  C:08D7H         LINE#         607
  C:08F1H         LINE#         608
  C:08F1H         LINE#         609
  C:091CH         LINE#         610
  C:0947H         LINE#         611
  C:0972H         LINE#         612
  C:099DH         LINE#         613
  C:09C8H         LINE#         614
  C:09FCH         LINE#         615
  C:09FFH         LINE#         616
  C:0A19H         LINE#         617
  C:0A19H         LINE#         618
  C:0A44H         LINE#         619
  C:0A6FH         LINE#         620
  C:0A9AH         LINE#         621
  C:0AC5H         LINE#         622
  C:0AF0H         LINE#         623
  C:0B24H         LINE#         624
  C:0B24H         LINE#         625
  C:0B27H         LINE#         626
  C:0B27H         LINE#         627
  C:0B3BH         LINE#         628
  C:0B3BH         LINE#         629
  C:0B40H         LINE#         630
  C:0B52H         LINE#         631
  C:0B64H         LINE#         632
  C:0B76H         LINE#         633
  C:0B89H         LINE#         635
  C:0B9DH         LINE#         636
  C:0BA8H         LINE#         637
  C:0BA8H         LINE#         638
  C:0BA8H         LINE#         639
  C:0BA8H         LINE#         640
  C:0BA8H         LINE#         641
  C:0BA8H         LINE#         642
  C:0BA8H         LINE#         643
  C:0BA8H         LINE#         644
  C:0BC1H         LINE#         645
  -------         ENDPROC       PC_PRG
  -------         ENDMOD        UART

  -------         MODULE        IAP_FLASH
  C:0000H         SYMBOL        _ICE_DUMMY_
  D:0090H         PUBLIC        P1
  D:00A0H         PUBLIC        P2
BL51 BANKED LINKER/LOCATER V6.22.2.0                                                  03/01/2022  16:31:57  PAGE 29


  C:1E3EH         PUBLIC        ID_learn
  D:00E7H         PUBLIC        ISPCR
  D:00C0H         PUBLIC        XICON
  D:00B0H         PUBLIC        P3
  D:00E8H         PUBLIC        P4
  D:00F8H         PUBLIC        P5
  D:00F8H         PUBLIC        P6
  B:00A8H.7       PUBLIC        EA
  C:5813H         PUBLIC        _IAP_WriteBuf_With_Protect_Verify
  D:00A8H         PUBLIC        IE
  D:00B8H         PUBLIC        IP0L
  C:6C40H         PUBLIC        IAP_Erase_All_ID
  C:76A6H         PUBLIC        _IAP_WritePPage
  D:00BFH         PUBLIC        CKCON1
  D:00D8H         PUBLIC        CCON
  D:00E6H         PUBLIC        SCMD
  C:76F9H         PUBLIC        _IAP_ErasePage
  D:00E3H         PUBLIC        IFADRH
  D:00E5H         PUBLIC        IFMT
  C:55A5H         PUBLIC        _Delete_GeneralID_EEPROM
  B:00A0H.1       PUBLIC        P21
  D:00E4H         PUBLIC        IFADRL
  C:69FEH         PUBLIC        ID_Login_EXIT_Initial
  D:0088H         PUBLIC        TCON
  B:00A0H.5       PUBLIC        P25
  C:751DH         PUBLIC        _IAP_Write_Byte
  C:7859H         SYMBOL        _?ix1000
  C:7882H         PUBLIC        Init_IAP_flash
  C:785CH         SYMBOL        _?ix1001
  C:785FH         SYMBOL        _?ix1002
  C:7862H         SYMBOL        _?ix1003
  C:7371H         PUBLIC        ALL_ID_EEPROM_Erase
  C:7865H         SYMBOL        _?ix1004
  C:5331H         PUBLIC        ID_EEPROM_write
  C:38E3H         PUBLIC        eeprom_sys_load
  D:00E2H         PUBLIC        IFD
  C:6ED0H         PUBLIC        _ID_SCX1801_EEPROM_write
  D:0098H         PUBLIC        S0CON
  D:0098H         PUBLIC        S1CON
  D:00C8H         PUBLIC        T2CON
  D:00D0H         PUBLIC        PSW
  -------         PROC          INIT_IAP_FLASH
  C:7882H         LINE#         16
  C:7882H         LINE#         17
  C:7882H         LINE#         19
  C:7885H         LINE#         22
  C:788CH         LINE#         23
  -------         ENDPROC       INIT_IAP_FLASH
  -------         PROC          _IAP_WRITEPPAGE
  D:005CH         SYMBOL        PsfrAddr
  D:005DH         SYMBOL        PsfrData
  -------         DO            
  B:0020H.2       SYMBOL        bEA
  -------         ENDDO         
  C:76A6H         LINE#         34
  C:76AAH         LINE#         35
  C:76AAH         LINE#         36
BL51 BANKED LINKER/LOCATER V6.22.2.0                                                  03/01/2022  16:31:57  PAGE 30


  C:76AEH         LINE#         37
  C:76B0H         LINE#         38
  C:76B3H         LINE#         39
  C:76B6H         LINE#         40
  C:76B9H         LINE#         41
  C:76BCH         LINE#         42
  C:76BFH         LINE#         44
  C:76C2H         LINE#         46
  C:76C5H         LINE#         47
  C:76C6H         LINE#         48
  C:76C9H         LINE#         49
  C:76CCH         LINE#         50
  C:76D0H         LINE#         51
  -------         ENDPROC       _IAP_WRITEPPAGE
  -------         PROC          _IAP_ERASEPAGE
  D:0065H         SYMBOL        ByteAddr
  -------         DO            
  B:0020H.3       SYMBOL        bEA
  -------         ENDDO         
  C:76F9H         LINE#         92
  C:76FBH         LINE#         93
  C:76FBH         LINE#         94
  C:76FFH         LINE#         95
  C:7702H         LINE#         96
  C:7705H         LINE#         97
  C:7707H         LINE#         98
  C:770AH         LINE#         99
  C:770DH         LINE#         101
  C:7710H         LINE#         103
  C:7713H         LINE#         104
  C:7714H         LINE#         105
  C:7717H         LINE#         106
  C:771AH         LINE#         107
  C:771EH         LINE#         108
  -------         ENDPROC       _IAP_ERASEPAGE
  -------         PROC          _IAP_WRITEBUF_WITH_PROTECT_VERIFY
  D:0018H         SYMBOL        ByteAddr
  D:001AH         SYMBOL        pBuf
  D:001DH         SYMBOL        Cnt
  -------         DO            
  X:03B5H         SYMBOL        TempBuf
  X:05B5H         SYMBOL        i
  X:05B7H         SYMBOL        ErrCnt
  X:05B8H         SYMBOL        SectorAddr
  B:0020H.4       SYMBOL        bEA
  C:58F9H         SYMBOL        Err_Loop
  C:5A35H         SYMBOL        Err_Return
  -------         ENDDO         
  C:5813H         LINE#         123
  C:581DH         LINE#         124
  C:581DH         LINE#         129
  C:5821H         LINE#         131
  C:5823H         LINE#         132
  C:5828H         LINE#         134
  C:5837H         LINE#         135
  C:584DH         LINE#         136
  C:584DH         LINE#         137
BL51 BANKED LINKER/LOCATER V6.22.2.0                                                  03/01/2022  16:31:57  PAGE 31


  C:5854H         LINE#         138
  C:585BH         LINE#         139
  C:585EH         LINE#         140
  C:5861H         LINE#         141
  C:5864H         LINE#         142
  C:5867H         LINE#         143
  C:586AH         LINE#         144
  C:586DH         LINE#         145
  C:587BH         LINE#         146
  C:5890H         LINE#         147
  C:5893H         LINE#         148
  C:58A3H         LINE#         150
  C:58B2H         LINE#         151
  C:58B8H         LINE#         152
  C:58B8H         LINE#         153
  C:58D6H         LINE#         154
  C:58E1H         LINE#         155
  C:58EFH         LINE#         156
  C:58F7H         LINE#         157
  C:58F9H         LINE#         158
  C:58F9H         LINE#         160
  C:5908H         LINE#         161
  C:590FH         LINE#         162
  C:5912H         LINE#         163
  C:5915H         LINE#         164
  C:5918H         LINE#         166
  C:591BH         LINE#         168
  C:591EH         LINE#         169
  C:591FH         LINE#         170
  C:5922H         LINE#         171
  C:5925H         LINE#         173
  C:593BH         LINE#         174
  C:593BH         LINE#         175
  C:5951H         LINE#         176
  C:5958H         LINE#         177
  C:595FH         LINE#         178
  C:5962H         LINE#         179
  C:5965H         LINE#         181
  C:5968H         LINE#         183
  C:596BH         LINE#         184
  C:596CH         LINE#         185
  C:596FH         LINE#         186
  C:5972H         LINE#         187
  C:5980H         LINE#         188
  C:5983H         LINE#         189
  C:5993H         LINE#         191
  C:59A2H         LINE#         192
  C:59B8H         LINE#         193
  C:59B8H         LINE#         194
  C:59BFH         LINE#         195
  C:59C6H         LINE#         196
  C:59C9H         LINE#         197
  C:59CCH         LINE#         199
  C:59CFH         LINE#         201
  C:59D2H         LINE#         202
  C:59D5H         LINE#         203
  C:59D8H         LINE#         204
BL51 BANKED LINKER/LOCATER V6.22.2.0                                                  03/01/2022  16:31:57  PAGE 32


  C:59E6H         LINE#         205
  C:59E9H         LINE#         206
  C:5A02H         LINE#         207
  C:5A02H         LINE#         208
  C:5A08H         LINE#         209
  C:5A1AH         LINE#         210
  C:5A1AH         LINE#         211
  C:5A1DH         LINE#         212
  C:5A1DH         LINE#         214
  C:5A1DH         LINE#         215
  C:5A1FH         LINE#         216
  C:5A1FH         LINE#         217
  C:5A1FH         LINE#         218
  C:5A30H         LINE#         219
  C:5A35H         LINE#         220
  C:5A35H         LINE#         221
  C:5A39H         LINE#         222
  C:5A3EH         LINE#         223
  -------         ENDPROC       _IAP_WRITEBUF_WITH_PROTECT_VERIFY
  -------         PROC          _IAP_WRITE_BYTE
  D:0056H         SYMBOL        Addr
  D:0058H         SYMBOL        wdata
  -------         DO            
  B:0020H.5       SYMBOL        bEA
  -------         ENDDO         
  C:751DH         LINE#         226
  C:7523H         LINE#         227
  C:7523H         LINE#         228
  C:7527H         LINE#         229
  C:7529H         LINE#         230
  C:752CH         LINE#         231
  C:7536H         LINE#         232
  C:753DH         LINE#         233
  C:7540H         LINE#         234
  C:7543H         LINE#         235
  C:7546H         LINE#         236
  C:7549H         LINE#         237
  C:754AH         LINE#         238
  C:754DH         LINE#         239
  C:7550H         LINE#         240
  C:7554H         LINE#         241
  -------         ENDPROC       _IAP_WRITE_BYTE
  -------         PROC          IAP_ERASE_ALL_ID
  -------         DO            
  X:05BAH         SYMBOL        read_rf
  X:05BBH         SYMBOL        scx1801_id
  -------         ENDDO         
  C:6C40H         LINE#         244
  C:6C40H         LINE#         245
  C:6C40H         LINE#         246
  C:6C45H         LINE#         247
  C:6C6AH         LINE#         249
  C:6C75H         LINE#         250
  C:6C80H         LINE#         251
  C:6C8BH         LINE#         252
  C:6C96H         LINE#         254
  C:6C9BH         LINE#         255
BL51 BANKED LINKER/LOCATER V6.22.2.0                                                  03/01/2022  16:31:57  PAGE 33


  C:6C9EH         LINE#         257
  C:6CA3H         LINE#         258
  C:6CA6H         LINE#         260
  C:6CB2H         LINE#         261
  C:6CBEH         LINE#         262
  C:6CCAH         LINE#         263
  C:6CD6H         LINE#         264
  -------         ENDPROC       IAP_ERASE_ALL_ID
  -------         PROC          EEPROM_SYS_LOAD
  -------         DO            
  I:00B0H         SYMBOL        offset
  I:00B1H         SYMBOL        i
  I:00B3H         SYMBOL        q
  I:00B5H         SYMBOL        p
  I:00B7H         SYMBOL        xm
  I:00BAH         SYMBOL        xn
  -------         ENDDO         
  C:38E3H         LINE#         267
  C:38E3H         LINE#         268
  C:38E3H         LINE#         269
  C:38E7H         LINE#         271
  C:390CH         LINE#         274
  C:3916H         LINE#         275
  C:3920H         LINE#         276
  C:392AH         LINE#         277
  C:392EH         LINE#         278
  C:3936H         LINE#         279
  C:393EH         LINE#         280
  C:3946H         LINE#         281
  C:3978H         LINE#         282
  C:3983H         LINE#         284
  C:398DH         LINE#         285
  C:3997H         LINE#         286
  C:39B5H         LINE#         287
  C:39C5H         LINE#         288
  C:39CFH         LINE#         289
  C:39E0H         LINE#         290
  C:39E9H         LINE#         291
  C:39F8H         LINE#         292
  C:39FFH         LINE#         293
  C:3A1EH         LINE#         294
  C:3A1EH         LINE#         295
  C:3A3FH         LINE#         296
  C:3A60H         LINE#         297
  C:3A81H         LINE#         298
  C:3A85H         LINE#         299
  C:3A8DH         LINE#         300
  C:3A95H         LINE#         301
  C:3A9DH         LINE#         302
  C:3AC3H         LINE#         303
  C:3ACDH         LINE#         306
  C:3AEDH         LINE#         307
  C:3B0DH         LINE#         308
  C:3B2DH         LINE#         309
  C:3B35H         LINE#         313
  C:3B45H         LINE#         314
  C:3B45H         LINE#         315
BL51 BANKED LINKER/LOCATER V6.22.2.0                                                  03/01/2022  16:31:57  PAGE 34


  C:3B48H         LINE#         316
  C:3B53H         LINE#         318
  C:3B5DH         LINE#         319
  C:3B87H         LINE#         320
  C:3B87H         LINE#         321
  C:3B90H         LINE#         322
  C:3BB6H         LINE#         323
  C:3BCDH         LINE#         325
  C:3BF3H         LINE#         326
  C:3C0AH         LINE#         328
  C:3C30H         LINE#         329
  C:3C47H         LINE#         331
  C:3C6DH         LINE#         332
  C:3C84H         LINE#         334
  C:3CAAH         LINE#         335
  C:3CC1H         LINE#         336
  C:3CC2H         LINE#         337
  C:3CEDH         LINE#         338
  C:3CEDH         LINE#         339
  C:3CF6H         LINE#         340
  C:3CFCH         LINE#         341
  C:3D27H         LINE#         342
  C:3D3EH         LINE#         344
  C:3D69H         LINE#         345
  C:3D80H         LINE#         347
  C:3DABH         LINE#         348
  C:3DC2H         LINE#         350
  C:3DEDH         LINE#         351
  C:3E04H         LINE#         353
  C:3E2FH         LINE#         354
  C:3E46H         LINE#         355
  C:3E46H         LINE#         356
  C:3E46H         LINE#         357
  -------         ENDPROC       EEPROM_SYS_LOAD
  -------         PROC          ID_EEPROM_WRITE
  -------         DO            
  I:0090H         SYMBOL        xm
  I:0093H         SYMBOL        i
  I:0095H         SYMBOL        j
  I:0097H         SYMBOL        m1
  I:0099H         SYMBOL        xn
  I:009DH         SYMBOL        xd
  -------         ENDDO         
  C:5331H         LINE#         359
  C:5331H         LINE#         360
  C:5331H         LINE#         361
  C:5356H         LINE#         364
  C:5364H         LINE#         365
  C:5374H         LINE#         366
  C:5382H         LINE#         368
  C:5395H         LINE#         371
  C:53D5H         LINE#         372
  C:5415H         LINE#         373
  C:5450H         LINE#         377
  C:5463H         LINE#         379
  C:547AH         LINE#         380
  C:547AH         LINE#         381
BL51 BANKED LINKER/LOCATER V6.22.2.0                                                  03/01/2022  16:31:57  PAGE 35


  C:548FH         LINE#         382
  C:54A6H         LINE#         383
  C:54AEH         LINE#         384
  C:54C5H         LINE#         385
  C:54CDH         LINE#         386
  C:54E4H         LINE#         387
  C:54E8H         LINE#         388
  C:54F0H         LINE#         389
  C:54F8H         LINE#         390
  C:5500H         LINE#         391
  C:5526H         LINE#         392
  C:5528H         LINE#         393
  C:552BH         LINE#         394
  C:5536H         LINE#         396
  C:553EH         LINE#         397
  C:5546H         LINE#         398
  C:554EH         LINE#         399
  C:5564H         LINE#         401
  C:5582H         LINE#         403
  C:5593H         LINE#         404
  C:5593H         LINE#         405
  C:5596H         LINE#         406
  C:559BH         LINE#         407
  C:55A4H         LINE#         408
  C:55A4H         LINE#         409
  -------         ENDPROC       ID_EEPROM_WRITE
  -------         PROC          ID_LOGIN_EXIT_INITIAL
  C:69FEH         LINE#         411
  C:69FEH         LINE#         412
  C:69FEH         LINE#         414
  C:6A14H         LINE#         415
  C:6A14H         LINE#         416
  C:6A1FH         LINE#         417
  C:6A2AH         LINE#         418
  C:6A35H         LINE#         419
  C:6A37H         LINE#         420
  C:6A4FH         LINE#         421
  C:6A4FH         LINE#         422
  C:6A5AH         LINE#         423
  C:6A65H         LINE#         424
  C:6A65H         LINE#         425
  C:6A68H         LINE#         426
  C:6A76H         LINE#         427
  C:6A84H         LINE#         428
  C:6A92H         LINE#         429
  C:6AA0H         LINE#         430
  C:6AAEH         LINE#         431
  C:6ABCH         LINE#         432
  C:6ABEH         LINE#         433
  C:6AC3H         LINE#         443
  -------         ENDPROC       ID_LOGIN_EXIT_INITIAL
  -------         PROC          _ID_SCX1801_EEPROM_WRITE
  D:003BH         SYMBOL        id
  -------         DO            
  I:00C6H         SYMBOL        xm
  I:00C9H         SYMBOL        xn
  -------         ENDDO         
BL51 BANKED LINKER/LOCATER V6.22.2.0                                                  03/01/2022  16:31:57  PAGE 36


  C:6ED0H         LINE#         445
  C:6ED8H         LINE#         446
  C:6ED8H         LINE#         447
  C:6EFDH         LINE#         450
  C:6F0AH         LINE#         451
  C:6F18H         LINE#         452
  C:6F20H         LINE#         453
  C:6F28H         LINE#         454
  C:6F30H         LINE#         455
  C:6F43H         LINE#         456
  -------         ENDPROC       _ID_SCX1801_EEPROM_WRITE
  -------         PROC          _DELETE_GENERALID_EEPROM
  D:003FH         SYMBOL        id
  -------         DO            
  I:00A1H         SYMBOL        i
  I:00A3H         SYMBOL        j
  I:00A5H         SYMBOL        m2
  I:00A7H         SYMBOL        original_pcs
  I:00A9H         SYMBOL        xm
  I:00ACH         SYMBOL        xn
  -------         ENDDO         
  C:55A5H         LINE#         458
  C:55ADH         LINE#         459
  C:55ADH         LINE#         460
  C:55B4H         LINE#         461
  C:55D9H         LINE#         464
  C:55E8H         LINE#         465
  C:5608H         LINE#         466
  C:5608H         LINE#         468
  C:5655H         LINE#         469
  C:5655H         LINE#         470
  C:567CH         LINE#         471
  C:567CH         LINE#         472
  C:56B4H         LINE#         473
  C:56ECH         LINE#         474
  C:5724H         LINE#         475
  C:5727H         LINE#         476
  C:5732H         LINE#         477
  C:5740H         LINE#         478
  C:574CH         LINE#         479
  C:574CH         LINE#         480
  C:5750H         LINE#         482
  C:5750H         LINE#         483
  C:5750H         LINE#         500
  C:5753H         LINE#         501
  C:575EH         LINE#         503
  C:576EH         LINE#         504
  C:577CH         LINE#         505
  C:578FH         LINE#         507
  C:57ABH         LINE#         508
  C:57ABH         LINE#         510
  C:57BAH         LINE#         514
  C:57C2H         LINE#         515
  C:57CAH         LINE#         516
  C:57D2H         LINE#         517
  C:57E7H         LINE#         518
  C:5805H         LINE#         519
BL51 BANKED LINKER/LOCATER V6.22.2.0                                                  03/01/2022  16:31:57  PAGE 37


  C:5808H         LINE#         520
  C:5812H         LINE#         521
  -------         ENDPROC       _DELETE_GENERALID_EEPROM
  -------         PROC          ALL_ID_EEPROM_ERASE
  -------         DO            
  I:00D2H         SYMBOL        i
  -------         ENDDO         
  C:7371H         LINE#         523
  C:7371H         LINE#         524
  C:7371H         LINE#         527
  C:7379H         LINE#         530
  C:738DH         LINE#         534
  C:738DH         LINE#         535
  C:73A0H         LINE#         536
  C:73A3H         LINE#         537
  C:73ADH         LINE#         538
  C:73B0H         LINE#         539
  -------         ENDPROC       ALL_ID_EEPROM_ERASE
  -------         PROC          ID_LEARN
  C:1E3EH         LINE#         541
  C:1E3EH         LINE#         542
  C:1E3EH         LINE#         545
  C:1E4AH         LINE#         546
  C:1E4AH         LINE#         547
  C:1E58H         LINE#         548
  C:1E64H         LINE#         549
  C:1E74H         LINE#         550
  C:1E79H         LINE#         551
  C:1E81H         LINE#         552
  C:1E87H         LINE#         553
  C:1E93H         LINE#         554
  C:1EA1H         LINE#         555
  C:1EA9H         LINE#         556
  C:1EAFH         LINE#         557
  C:1EBBH         LINE#         558
  C:1EC9H         LINE#         559
  C:1ED5H         LINE#         560
  C:1EE3H         LINE#         561
  C:1EEFH         LINE#         562
  C:1EFDH         LINE#         563
  C:1F05H         LINE#         564
  C:1F0BH         LINE#         565
  C:1F17H         LINE#         566
  C:1F25H         LINE#         567
  C:1F31H         LINE#         568
  C:1F3FH         LINE#         569
  C:1F4BH         LINE#         570
  C:1F59H         LINE#         571
  C:1F65H         LINE#         572
  C:1F73H         LINE#         573
  C:1F7FH         LINE#         574
  C:1F8FH         LINE#         575
  C:1FD0H         LINE#         578
  C:1FD0H         LINE#         579
  C:1FD8H         LINE#         580
  C:1FDDH         LINE#         581
  C:1FDDH         LINE#         583
BL51 BANKED LINKER/LOCATER V6.22.2.0                                                  03/01/2022  16:31:57  PAGE 38


  C:1FE3H         LINE#         584
  C:1FE3H         LINE#         585
  C:2002H         LINE#         586
  C:200CH         LINE#         587
  C:2059H         LINE#         588
  C:2059H         LINE#         589
  C:2067H         LINE#         590
  C:2072H         LINE#         591
  C:207DH         LINE#         592
  C:2083H         LINE#         593
  C:208DH         LINE#         594
  C:2097H         LINE#         595
  C:2099H         LINE#         596
  C:20FCH         LINE#         599
  C:20FCH         LINE#         600
  C:2108H         LINE#         601
  C:210BH         LINE#         602
  C:210BH         LINE#         603
  C:210BH         LINE#         604
  C:210EH         LINE#         605
  C:210EH         LINE#         606
  C:211FH         LINE#         607
  C:211FH         LINE#         608
  C:2131H         LINE#         609
  C:2137H         LINE#         610
  C:2137H         LINE#         611
  C:214CH         LINE#         612
  C:214CH         LINE#         613
  C:215AH         LINE#         614
  C:215FH         LINE#         615
  C:215FH         LINE#         616
  C:2167H         LINE#         617
  C:2167H         LINE#         618
  C:2178H         LINE#         619
  C:2178H         LINE#         620
  C:2186H         LINE#         621
  C:2194H         LINE#         622
  C:219CH         LINE#         623
  C:219FH         LINE#         624
  C:21ADH         LINE#         625
  C:21B6H         LINE#         626
  C:21C0H         LINE#         627
  C:21C5H         LINE#         628
  C:21CFH         LINE#         629
  C:21D2H         LINE#         630
  C:2206H         LINE#         631
  C:2206H         LINE#         633
  C:2214H         LINE#         634
  C:2222H         LINE#         635
  C:222DH         LINE#         636
  C:2238H         LINE#         637
  C:2243H         LINE#         638
  C:2249H         LINE#         639
  C:2253H         LINE#         640
  C:225DH         LINE#         641
  C:225DH         LINE#         642
  C:227AH         LINE#         643
BL51 BANKED LINKER/LOCATER V6.22.2.0                                                  03/01/2022  16:31:57  PAGE 39


  C:227AH         LINE#         644
  C:228DH         LINE#         645
  C:228DH         LINE#         646
  C:229BH         LINE#         647
  C:22A5H         LINE#         648
  C:22A8H         LINE#         649
  C:22AAH         LINE#         650
  C:22BFH         LINE#         651
  C:22BFH         LINE#         652
  C:22CDH         LINE#         653
  C:22D6H         LINE#         654
  C:22D9H         LINE#         655
  C:22D9H         LINE#         656
  C:22D9H         LINE#         657
  C:231BH         LINE#         658
  C:231BH         LINE#         659
  C:2329H         LINE#         660
  C:233AH         LINE#         661
  C:233AH         LINE#         662
  C:2342H         LINE#         663
  C:2353H         LINE#         664
  C:2357H         LINE#         666
  C:2359H         LINE#         667
  C:2359H         LINE#         668
  C:238DH         LINE#         669
  C:238DH         LINE#         670
  C:23CDH         LINE#         671
  C:23DBH         LINE#         672
  C:23EFH         LINE#         673
  C:23EFH         LINE#         674
  C:23FDH         LINE#         675
  C:240BH         LINE#         676
  C:2419H         LINE#         677
  C:2427H         LINE#         678
  C:242AH         LINE#         679
  C:243BH         LINE#         680
  C:2453H         LINE#         681
  C:2453H         LINE#         682
  C:2461H         LINE#         683
  C:2472H         LINE#         684
  C:2472H         LINE#         685
  C:2475H         LINE#         686
  C:2478H         LINE#         688
  C:2478H         LINE#         689
  C:2490H         LINE#         690
  C:24A1H         LINE#         692
  C:24A1H         LINE#         693
  C:24A4H         LINE#         694
  C:24AEH         LINE#         695
  C:24E2H         LINE#         696
  C:24E2H         LINE#         697
  C:24FEH         LINE#         698
  C:2512H         LINE#         699
  C:2515H         LINE#         700
  C:2518H         LINE#         701
  C:2531H         LINE#         702
  C:2531H         LINE#         703
BL51 BANKED LINKER/LOCATER V6.22.2.0                                                  03/01/2022  16:31:57  PAGE 40


  C:2548H         LINE#         704
  C:2548H         LINE#         705
  C:2556H         LINE#         706
  C:255EH         LINE#         707
  C:2561H         LINE#         708
  C:256BH         LINE#         709
  C:2576H         LINE#         710
  C:2592H         LINE#         711
  C:25A3H         LINE#         712
  C:25A5H         LINE#         713
  C:25C1H         LINE#         714
  C:25C4H         LINE#         715
  C:25C4H         LINE#         716
  C:25C4H         LINE#         717
  C:25C4H         LINE#         718
  C:25C4H         LINE#         719
  C:25D0H         LINE#         720
  C:25DFH         LINE#         722
  C:25E2H         LINE#         723
  C:25E2H         LINE#         724
  C:25E2H         LINE#         726
  -------         ENDPROC       ID_LEARN
  -------         ENDMOD        IAP_FLASH

  -------         MODULE        SPI
  C:0000H         SYMBOL        _ICE_DUMMY_
  D:0090H         PUBLIC        P1
  D:00A0H         PUBLIC        P2
  D:00C0H         PUBLIC        XICON
  D:00B0H         PUBLIC        P3
  D:00E8H         PUBLIC        P4
  D:00F8H         PUBLIC        P5
  D:0085H         PUBLIC        SPCON
  D:00F8H         PUBLIC        P6
  D:00A8H         PUBLIC        IE
  D:00B8H         PUBLIC        IP0L
  C:771FH         PUBLIC        Init_Spi
  D:00D8H         PUBLIC        CCON
  C:700EH         PUBLIC        _ML7345_Read_Fifo
  B:0090H.4       PUBLIC        P14
  D:0088H         PUBLIC        TCON
  C:6DE2H         PUBLIC        _ML7345_Write_Fifo
  C:74AAH         PUBLIC        _ML7345_Read_Reg
  C:75B9H         PUBLIC        _ML7345_Write_Reg
  D:0084H         PUBLIC        SPSTAT
  D:0098H         PUBLIC        S0CON
  D:0098H         PUBLIC        S1CON
  D:00C8H         PUBLIC        T2CON
  D:00A2H         PUBLIC        AUXR1
  C:77BBH         PUBLIC        _SPI1_SendRecv_Data
  D:00D0H         PUBLIC        PSW
  D:0086H         PUBLIC        SPDAT
  -------         PROC          INIT_SPI
  C:771FH         LINE#         4
  C:771FH         LINE#         5
  C:771FH         LINE#         7
  C:7722H         LINE#         9
BL51 BANKED LINKER/LOCATER V6.22.2.0                                                  03/01/2022  16:31:57  PAGE 41


  C:7725H         LINE#         11
  C:7732H         LINE#         13
  C:7735H         LINE#         15
  C:7738H         LINE#         17
  C:773BH         LINE#         19
  C:773EH         LINE#         21
  C:7740H         LINE#         22
  -------         ENDPROC       INIT_SPI
  -------         PROC          _SPI1_SENDRECV_DATA
  D:0066H         SYMBOL        SPI_DATA
  C:77BBH         LINE#         31
  C:77BDH         LINE#         32
  C:77BDH         LINE#         33
  C:77C2H         LINE#         34
  C:77C5H         LINE#         35
  C:77D0H         LINE#         36
  C:77D3H         LINE#         37
  C:77D5H         LINE#         38
  -------         ENDPROC       _SPI1_SENDRECV_DATA
  -------         PROC          _ML7345_WRITE_REG
  D:005EH         SYMBOL        addr
  D:005FH         SYMBOL        dat
  C:75B9H         LINE#         41
  C:75BDH         LINE#         42
  C:75BDH         LINE#         43
  C:75C2H         LINE#         44
  C:75C4H         LINE#         45
  C:75C9H         LINE#         47
  C:75D3H         LINE#         48
  C:75D8H         LINE#         49
  C:75DDH         LINE#         51
  C:75E2H         LINE#         52
  C:75E4H         LINE#         53
  C:75E9H         LINE#         54
  -------         ENDPROC       _ML7345_WRITE_REG
  -------         PROC          _ML7345_READ_REG
  D:0067H         SYMBOL        addr
  -------         DO            
  X:06E4H         SYMBOL        read
  -------         ENDDO         
  C:74AAH         LINE#         56
  C:74ACH         LINE#         57
  C:74ACH         LINE#         58
  C:74B1H         LINE#         59
  C:74B6H         LINE#         60
  C:74B8H         LINE#         61
  C:74BDH         LINE#         63
  C:74C3H         LINE#         64
  C:74C8H         LINE#         65
  C:74D2H         LINE#         67
  C:74D7H         LINE#         68
  C:74D9H         LINE#         69
  C:74DEH         LINE#         71
  C:74E3H         LINE#         72
  -------         ENDPROC       _ML7345_READ_REG
  -------         PROC          _ML7345_WRITE_FIFO
  D:0028H         SYMBOL        addr
BL51 BANKED LINKER/LOCATER V6.22.2.0                                                  03/01/2022  16:31:57  PAGE 42


  D:0029H         SYMBOL        pbuf
  D:002CH         SYMBOL        len
  -------         DO            
  X:06E5H         SYMBOL        i
  -------         ENDDO         
  C:6DE2H         LINE#         74
  C:6DEAH         LINE#         75
  C:6DEAH         LINE#         76
  C:6DEFH         LINE#         77
  C:6DF4H         LINE#         78
  C:6DF6H         LINE#         79
  C:6DFBH         LINE#         81
  C:6E05H         LINE#         82
  C:6E0AH         LINE#         83
  C:6E17H         LINE#         84
  C:6E28H         LINE#         85
  C:6E28H         LINE#         86
  C:6E2DH         LINE#         87
  C:6E44H         LINE#         88
  C:6E4CH         LINE#         90
  C:6E51H         LINE#         91
  C:6E53H         LINE#         92
  C:6E58H         LINE#         93
  -------         ENDPROC       _ML7345_WRITE_FIFO
  -------         PROC          _ML7345_READ_FIFO
  D:002DH         SYMBOL        addr
  D:002EH         SYMBOL        pbuf
  D:0031H         SYMBOL        len
  -------         DO            
  X:06E6H         SYMBOL        i
  -------         ENDDO         
  C:700EH         LINE#         95
  C:7016H         LINE#         96
  C:7016H         LINE#         97
  C:701BH         LINE#         98
  C:7020H         LINE#         99
  C:7022H         LINE#         100
  C:7027H         LINE#         102
  C:702DH         LINE#         103
  C:7032H         LINE#         105
  C:7042H         LINE#         106
  C:7042H         LINE#         107
  C:705BH         LINE#         108
  C:7063H         LINE#         110
  C:7068H         LINE#         111
  C:706AH         LINE#         112
  C:706FH         LINE#         113
  -------         ENDPROC       _ML7345_READ_FIFO
  -------         ENDMOD        SPI

  -------         MODULE        RAM
  C:0000H         SYMBOL        _ICE_DUMMY_
  X:0000H         PUBLIC        write_flash_buffer
  X:0008H         PUBLIC        TIME_Receiver_Login_restrict
  X:000AH         PUBLIC        Tx_Rx_mode
  X:000BH         PUBLIC        ERROR_Read_sendTX_packet
  X:000CH         PUBLIC        COUNT_Receiver_Login
BL51 BANKED LINKER/LOCATER V6.22.2.0                                                  03/01/2022  16:31:57  PAGE 43


  X:000DH         PUBLIC        ID_Receiver_Login
  X:0011H         PUBLIC        TIME_auto_out
  X:0013H         PUBLIC        TIMER_Semi_open
  X:0015H         PUBLIC        TIME_Login_EXIT_Button
  X:0017H         PUBLIC        Time_error_read_timeout
  X:0019H         PUBLIC        Manual_override_TIMER
  X:001BH         PUBLIC        Time_APP_RXstart
  X:001CH         PUBLIC        TIME_APP_TX_fromOUT
  X:001EH         PUBLIC        Last_Uart_Struct_DATA_Packet_Contro
  X:0027H         PUBLIC        SIO_cnt
  X:0028H         PUBLIC        TIME_ID_SCX1801_Login
  X:002AH         PUBLIC        FLAG__Semi_close_T
  X:002BH         PUBLIC        Uart_Struct_DATA_Packet_Contro
  X:0034H         PUBLIC        Struct_DATA_Packet_Contro
  I:006EH         PUBLIC        mark0_stu
  I:006FH         PUBLIC        mark1_stu
  X:003DH         PUBLIC        DATA_Packet_Control
  X:003EH         PUBLIC        X_ERR
  X:0040H         PUBLIC        ID_SCX1801_DATA
  X:0044H         PUBLIC        ID_Receiver_DATA
  X:0344H         PUBLIC        TIMER250ms_STOP
  X:0346H         PUBLIC        PROFILE_CH_FREQ_32bit_200002EC
  X:034AH         PUBLIC        X_ERRTimer
  X:034CH         PUBLIC        TIME_Receiver_Login
  X:034EH         PUBLIC        TIMER1s
  X:0350H         PUBLIC        time_Login_exit_256
  X:0352H         PUBLIC        DEF_APP_TX_freq
  I:0070H         PUBLIC        Channels
  X:0353H         PUBLIC        ERROR_Read_sendTX_count
  X:0354H         PUBLIC        Flag_ERROR_Read_once_again
  X:0355H         PUBLIC        FLAG__Semi_open_T
  X:0356H         PUBLIC        Time_error_read_gap
  X:0357H         PUBLIC        Struct_DATA_Packet_Contro_buf
  X:0360H         PUBLIC        FLAG_test
  X:0361H         PUBLIC        TIME_Receiver_Login_led
  X:0363H         PUBLIC        Struct_DATA_Packet_Contro_fno
  X:0364H         PUBLIC        RAM_RSSI_AVG
  X:0366H         PUBLIC        X_COUNT
  X:0368H         PUBLIC        DATA_Packet_ID
  X:036CH         PUBLIC        TIME_auto_close
  X:036EH         PUBLIC        TIME_Login_EXIT_rest
  X:0370H         PUBLIC        FLAG0
  X:0371H         PUBLIC        Time_APP_blank_TX
  X:0372H         PUBLIC        FLAG1
  X:0373H         PUBLIC        FLAG2
  I:0071H         PUBLIC        TIMER18ms
  X:0374H         PUBLIC        FLAG3
  X:0375H         PUBLIC        DATA_Packet_Contro_buf
  X:0376H         PUBLIC        ID_DATA_PCS
  I:0073H         PUBLIC        TIME_10ms
  X:0378H         PUBLIC        Send_err_com
  X:037FH         PUBLIC        TIME_power_led
  I:0074H         PUBLIC        CONST_TXPACKET_DATA_20000AF0
  X:0381H         PUBLIC        RAM_RSSI_SUM
  X:0385H         PUBLIC        TIME_Receiver_LED_OUT
  X:0387H         PUBLIC        TIME_TestNo91
  X:0389H         PUBLIC        Time_rf_init
BL51 BANKED LINKER/LOCATER V6.22.2.0                                                  03/01/2022  16:31:57  PAGE 44


  X:038BH         PUBLIC        RSSI_Read_Counter
  X:038CH         PUBLIC        TIME_ERROR_Read_once_again
  X:038DH         PUBLIC        SIO_DATA
  X:039DH         PUBLIC        X_ERR_CNT
  X:039EH         PUBLIC        retx_cnt
  X:039FH         PUBLIC        TIMER_Semi_close
  X:03A1H         PUBLIC        FLAG_test1
  X:03A2H         PUBLIC        SIO_buff
  X:03B2H         PUBLIC        TIME_OUT_OPEN_CLOSE
  X:03B3H         PUBLIC        TIMER300ms
  B:0020H.6       PUBLIC        Flag_TX_ID_load
  -------         ENDMOD        RAM

  -------         MODULE        ID_DECODE
  C:0000H         SYMBOL        _ICE_DUMMY_
  D:0090H         PUBLIC        P1
  D:00A0H         PUBLIC        P2
  D:00C0H         PUBLIC        XICON
  D:00B0H         PUBLIC        P3
  D:00E8H         PUBLIC        P4
  C:2D72H         PUBLIC        ID_Decode_IDCheck
  D:00F8H         PUBLIC        P5
  C:46E3H         PUBLIC        _Signal_DATA_Decode
  D:00F8H         PUBLIC        P6
  D:00A8H         PUBLIC        IE
  C:0BC2H         PUBLIC        ID_Decode_OUT
  D:00B8H         PUBLIC        IP0L
  D:00D8H         PUBLIC        CCON
  B:0090H.0       PUBLIC        P10
  B:0090H.1       PUBLIC        P11
  B:0090H.2       PUBLIC        P12
  D:0088H         PUBLIC        TCON
  B:00A0H.5       PUBLIC        P25
  C:725DH         PUBLIC        Receiver_BEEP
  C:70CCH         PUBLIC        TEST_beep
  D:0098H         PUBLIC        S0CON
  D:0098H         PUBLIC        S1CON
  C:6927H         PUBLIC        _BEEP_Module
  D:00C8H         PUBLIC        T2CON
  C:76D1H         PUBLIC        BEEP_and_LED
  C:6FAAH         PUBLIC        _Return_ID_DATA
  D:00D0H         PUBLIC        PSW
  C:5A3FH         PUBLIC        eeprom_IDcheck
  -------         PROC          ID_DECODE_IDCHECK
  C:2D72H         LINE#         19
  C:2D72H         LINE#         20
  C:2D72H         LINE#         22
  C:2D7EH         LINE#         23
  C:2D7EH         LINE#         24
  C:2D8CH         LINE#         25
  C:2DA0H         LINE#         26
  C:2DB2H         LINE#         27
  C:2DCAH         LINE#         28
  C:2DCAH         LINE#         29
  C:2DD4H         LINE#         30
  C:2DD7H         LINE#         31
  C:2E19H         LINE#         32
BL51 BANKED LINKER/LOCATER V6.22.2.0                                                  03/01/2022  16:31:57  PAGE 45


  C:2E19H         LINE#         33
  C:2E72H         LINE#         34
  C:2E72H         LINE#         35
  C:2ED3H         LINE#         36
  C:2ED3H         LINE#         37
  C:2EE1H         LINE#         38
  C:2EF5H         LINE#         39
  C:2EF5H         LINE#         40
  C:2EF5H         LINE#         41
  C:2EF6H         LINE#         42
  C:2F2DH         LINE#         43
  C:2F2DH         LINE#         44
  C:2F3BH         LINE#         45
  C:2F4BH         LINE#         46
  C:2F4BH         LINE#         47
  C:2F67H         LINE#         48
  C:2F71H         LINE#         50
  C:2FA0H         LINE#         51
  C:2FA0H         LINE#         52
  C:2FA2H         LINE#         53
  C:2FA7H         LINE#         54
  C:2FBFH         LINE#         55
  C:2FBFH         LINE#         56
  C:2FC2H         LINE#         57
  C:2FCFH         LINE#         58
  C:2FCFH         LINE#         59
  C:2FE7H         LINE#         60
  C:2FF6H         LINE#         61
  C:300AH         LINE#         62
  C:300AH         LINE#         63
  C:300DH         LINE#         64
  C:3021H         LINE#         65
  C:3024H         LINE#         66
  C:3024H         LINE#         67
  C:3025H         LINE#         68
  C:3033H         LINE#         69
  C:3033H         LINE#         70
  C:304EH         LINE#         71
  C:304EH         LINE#         72
  C:305CH         LINE#         73
  C:305FH         LINE#         74
  C:3081H         LINE#         75
  C:3081H         LINE#         76
  C:308BH         LINE#         77
  C:3096H         LINE#         79
  C:30ACH         LINE#         80
  C:30ACH         LINE#         81
  C:30B7H         LINE#         82
  C:30C8H         LINE#         83
  C:30D9H         LINE#         84
  C:30D9H         LINE#         93
  C:30DAH         LINE#         95
  C:30DAH         LINE#         96
  C:30EBH         LINE#         97
  C:30EBH         LINE#         98
  C:30EBH         LINE#         99
  C:30EBH         LINE#         100
BL51 BANKED LINKER/LOCATER V6.22.2.0                                                  03/01/2022  16:31:57  PAGE 46


  C:30EBH         LINE#         101
  C:30ECH         LINE#         103
  C:30ECH         LINE#         104
  C:30EEH         LINE#         105
  C:3107H         LINE#         106
  C:3107H         LINE#         107
  C:3115H         LINE#         108
  C:311FH         LINE#         109
  C:3139H         LINE#         110
  C:3139H         LINE#         111
  C:3147H         LINE#         112
  C:3151H         LINE#         113
  C:3151H         LINE#         114
  C:3154H         LINE#         115
  C:3164H         LINE#         118
  C:3164H         LINE#         119
  C:3172H         LINE#         120
  C:317AH         LINE#         121
  C:3188H         LINE#         122
  C:319FH         LINE#         123
  C:31A9H         LINE#         124
  C:31BAH         LINE#         125
  C:31BAH         LINE#         126
  C:31C6H         LINE#         127
  C:31D0H         LINE#         128
  C:31D2H         LINE#         129
  C:31EBH         LINE#         130
  C:31F5H         LINE#         131
  C:31F5H         LINE#         132
  C:31FFH         LINE#         134
  C:320DH         LINE#         135
  C:320DH         LINE#         136
  C:320EH         LINE#         137
  C:321EH         LINE#         138
  C:321EH         LINE#         139
  C:3223H         LINE#         140
  C:3237H         LINE#         141
  C:3252H         LINE#         142
  C:3281H         LINE#         143
  C:32A6H         LINE#         144
  C:32B0H         LINE#         145
  C:32E3H         LINE#         146
  C:32FEH         LINE#         147
  C:3300H         LINE#         148
  C:330AH         LINE#         149
  C:3318H         LINE#         150
  C:3321H         LINE#         151
  C:332FH         LINE#         152
  C:332FH         LINE#         153
  C:332FH         LINE#         156
  C:332FH         LINE#         157
  C:332FH         LINE#         158
  -------         ENDPROC       ID_DECODE_IDCHECK
  -------         PROC          _SIGNAL_DATA_DECODE
  D:0068H         SYMBOL        NUM_Type
  -------         DO            
  X:06BEH         SYMBOL        data_in
BL51 BANKED LINKER/LOCATER V6.22.2.0                                                  03/01/2022  16:31:57  PAGE 47


  X:06C2H         SYMBOL        data_out
  X:06C4H         SYMBOL        data_NRZ
  X:06D2H         SYMBOL        i
  X:06D3H         SYMBOL        j
  X:06D4H         SYMBOL        i_value
  -------         ENDDO         
  C:46E3H         LINE#         160
  C:46E5H         LINE#         161
  C:46E5H         LINE#         167
  C:46FFH         LINE#         168
  C:470FH         LINE#         169
  C:4726H         LINE#         170
  C:4726H         LINE#         171
  C:4738H         LINE#         172
  C:475EH         LINE#         174
  C:4782H         LINE#         175
  C:478AH         LINE#         176
  C:47A3H         LINE#         177
  C:47BAH         LINE#         178
  C:47BAH         LINE#         179
  C:47D1H         LINE#         180
  C:47F5H         LINE#         181
  C:4803H         LINE#         182
  C:481CH         LINE#         183
  C:4824H         LINE#         184
  C:4842H         LINE#         185
  C:484BH         LINE#         186
  C:4860H         LINE#         187
  C:4860H         LINE#         188
  C:4889H         LINE#         189
  C:4889H         LINE#         190
  C:4897H         LINE#         191
  C:48D4H         LINE#         192
  C:48F0H         LINE#         193
  C:48FEH         LINE#         194
  C:4911H         LINE#         195
  C:4912H         LINE#         197
  C:4920H         LINE#         198
  C:4921H         LINE#         199
  C:492EH         LINE#         200
  C:492EH         LINE#         201
  C:498FH         LINE#         202
  C:498FH         LINE#         203
  C:499DH         LINE#         204
  C:49DAH         LINE#         205
  C:49F6H         LINE#         206
  C:4A04H         LINE#         207
  C:4A17H         LINE#         208
  C:4A2EH         LINE#         209
  C:4A62H         LINE#         210
  C:4A63H         LINE#         212
  C:4A71H         LINE#         213
  C:4A71H         LINE#         214
  -------         ENDPROC       _SIGNAL_DATA_DECODE
  -------         PROC          EEPROM_IDCHECK
  -------         DO            
  X:06D5H         SYMBOL        i
BL51 BANKED LINKER/LOCATER V6.22.2.0                                                  03/01/2022  16:31:57  PAGE 48


  -------         ENDDO         
  C:5A3FH         LINE#         216
  C:5A3FH         LINE#         217
  C:5A3FH         LINE#         219
  C:5A4CH         LINE#         220
  C:5A4CH         LINE#         221
  C:5A5AH         LINE#         222
  C:5A64H         LINE#         223
  C:5A64H         LINE#         225
  C:5A74H         LINE#         226
  C:5A74H         LINE#         227
  C:5A7CH         LINE#         229
  C:5A7CH         LINE#         231
  C:5A9BH         LINE#         235
  C:5A9BH         LINE#         236
  C:5AABH         LINE#         237
  C:5AB9H         LINE#         238
  C:5AD2H         LINE#         239
  C:5B04H         LINE#         240
  C:5B06H         LINE#         241
  C:5B28H         LINE#         242
  C:5B28H         LINE#         243
  C:5B38H         LINE#         244
  C:5B46H         LINE#         245
  C:5B50H         LINE#         246
  C:5B50H         LINE#         247
  C:5B7DH         LINE#         248
  C:5B7DH         LINE#         249
  C:5B8DH         LINE#         250
  C:5B9BH         LINE#         251
  C:5BA5H         LINE#         252
  C:5BA5H         LINE#         253
  C:5BB3H         LINE#         254
  C:5BCDH         LINE#         255
  C:5BCEH         LINE#         256
  C:5BFDH         LINE#         257
  C:5BFDH         LINE#         258
  C:5C0BH         LINE#         259
  C:5C30H         LINE#         260
  C:5C30H         LINE#         286
  -------         ENDPROC       EEPROM_IDCHECK
  -------         PROC          _BEEP_MODULE
  D:0043H         SYMBOL        time_beepON
  D:0045H         SYMBOL        time_beepOFF
  -------         DO            
  I:00D4H         SYMBOL        i
  -------         ENDDO         
  C:6927H         LINE#         288
  C:692FH         LINE#         289
  C:692FH         LINE#         292
  C:6946H         LINE#         293
  C:6946H         LINE#         294
  C:695CH         LINE#         295
  C:695CH         LINE#         296
  C:696AH         LINE#         297
  C:6978H         LINE#         298
  C:697BH         LINE#         299
BL51 BANKED LINKER/LOCATER V6.22.2.0                                                  03/01/2022  16:31:57  PAGE 49


  C:697BH         LINE#         300
  C:6980H         LINE#         301
  C:6985H         LINE#         302
  C:698AH         LINE#         303
  C:698DH         LINE#         304
  C:6997H         LINE#         305
  C:69AEH         LINE#         306
  C:69AEH         LINE#         307
  C:69C2H         LINE#         308
  C:69C2H         LINE#         309
  C:69D0H         LINE#         310
  C:69DEH         LINE#         311
  C:69E1H         LINE#         312
  C:69E1H         LINE#         313
  C:69E6H         LINE#         314
  C:69EBH         LINE#         315
  C:69F0H         LINE#         316
  C:69F3H         LINE#         317
  C:69FDH         LINE#         319
  -------         ENDPROC       _BEEP_MODULE
  -------         PROC          BEEP_AND_LED
  C:76D1H         LINE#         321
  C:76D1H         LINE#         322
  C:76D1H         LINE#         323
  C:76D3H         LINE#         324
  C:76DEH         LINE#         325
  C:76ECH         LINE#         326
  C:76EFH         LINE#         327
  C:76F8H         LINE#         328
  -------         ENDPROC       BEEP_AND_LED
  -------         PROC          RECEIVER_BEEP
  -------         DO            
  I:00D6H         SYMBOL        j
  -------         ENDDO         
  C:725DH         LINE#         330
  C:725DH         LINE#         331
  C:725DH         LINE#         333
  C:726CH         LINE#         334
  C:726CH         LINE#         335
  C:727AH         LINE#         336
  C:7291H         LINE#         337
  C:72A6H         LINE#         338
  C:72A6H         LINE#         339
  -------         ENDPROC       RECEIVER_BEEP
  -------         PROC          TEST_BEEP
  C:70CCH         LINE#         341
  C:70CCH         LINE#         342
  C:70CCH         LINE#         343
  C:70D9H         LINE#         344
  C:70E6H         LINE#         345
  C:70F3H         LINE#         346
  C:70F3H         LINE#         347
  C:70FEH         LINE#         348
  C:7109H         LINE#         349
  C:710BH         LINE#         350
  C:711BH         LINE#         351
  C:7120H         LINE#         352
BL51 BANKED LINKER/LOCATER V6.22.2.0                                                  03/01/2022  16:31:57  PAGE 50


  -------         ENDPROC       TEST_BEEP
  -------         PROC          ID_DECODE_OUT
  -------         DO            
  X:06D7H         SYMBOL        Control_i
  -------         ENDDO         
  C:0BC2H         LINE#         354
  C:0BC2H         LINE#         355
  C:0BC2H         LINE#         358
  C:0BD0H         LINE#         359
  C:0BDFH         LINE#         360
  C:0BDFH         LINE#         361
  C:0BFCH         LINE#         362
  C:0BFCH         LINE#         363
  C:0C1AH         LINE#         364
  C:0C1AH         LINE#         365
  C:0C30H         LINE#         366
  C:0C30H         LINE#         367
  C:0C30H         LINE#         370
  C:0C32H         LINE#         371
  C:0C36H         LINE#         372
  C:0C41H         LINE#         373
  C:0C47H         LINE#         375
  C:0C4AH         LINE#         376
  C:0C4AH         LINE#         379
  C:0C4CH         LINE#         380
  C:0C50H         LINE#         381
  C:0C5BH         LINE#         382
  C:0C61H         LINE#         384
  C:0C64H         LINE#         385
  C:0C64H         LINE#         388
  C:0C66H         LINE#         389
  C:0C6AH         LINE#         390
  C:0C75H         LINE#         391
  C:0C7BH         LINE#         393
  C:0C7EH         LINE#         394
  C:0C7EH         LINE#         395
  C:0C81H         LINE#         396
  C:0C81H         LINE#         398
  C:0C81H         LINE#         399
  C:0C84H         LINE#         401
  C:0C84H         LINE#         402
  C:0CB2H         LINE#         403
  C:0CB2H         LINE#         404
  C:0CB2H         LINE#         405
  C:0CB4H         LINE#         406
  C:0CBDH         LINE#         408
  C:0CCCH         LINE#         409
  C:0CE0H         LINE#         410
  C:0CE0H         LINE#         411
  C:0CEFH         LINE#         412
  C:0CFEH         LINE#         413
  C:0D01H         LINE#         414
  C:0D01H         LINE#         415
  C:0D04H         LINE#         416
  C:0D04H         LINE#         417
  C:0D39H         LINE#         418
  C:0D39H         LINE#         419
BL51 BANKED LINKER/LOCATER V6.22.2.0                                                  03/01/2022  16:31:57  PAGE 51


  C:0D3BH         LINE#         420
  C:0D43H         LINE#         422
  C:0D53H         LINE#         423
  C:0D64H         LINE#         424
  C:0D64H         LINE#         425
  C:0D73H         LINE#         426
  C:0D83H         LINE#         427
  C:0D86H         LINE#         428
  C:0D97H         LINE#         429
  C:0D97H         LINE#         430
  C:0DA7H         LINE#         431
  C:0DB7H         LINE#         432
  C:0DBAH         LINE#         434
  C:0DBAH         LINE#         435
  C:0DC8H         LINE#         436
  C:0DD8H         LINE#         437
  C:0DE7H         LINE#         438
  C:0DE7H         LINE#         439
  C:0DE7H         LINE#         440
  C:0DEAH         LINE#         441
  C:0DEAH         LINE#         442
  C:0DECH         LINE#         443
  C:0DF7H         LINE#         444
  C:0DF7H         LINE#         445
  C:0E07H         LINE#         447
  C:0E16H         LINE#         448
  C:0E25H         LINE#         449
  C:0E28H         LINE#         451
  C:0E28H         LINE#         452
  C:0E38H         LINE#         453
  C:0E48H         LINE#         454
  C:0E58H         LINE#         456
  C:0E58H         LINE#         457
  C:0E5BH         LINE#         458
  C:0E5BH         LINE#         459
  C:0E5DH         LINE#         460
  C:0E6DH         LINE#         461
  C:0E7DH         LINE#         463
  C:0E8CH         LINE#         464
  C:0E8FH         LINE#         465
  C:0E8FH         LINE#         466
  C:0E91H         LINE#         467
  C:0EA1H         LINE#         468
  C:0EB1H         LINE#         470
  C:0EC0H         LINE#         471
  C:0EC3H         LINE#         472
  C:0EC3H         LINE#         473
  C:0EC5H         LINE#         474
  C:0ED5H         LINE#         475
  C:0EE5H         LINE#         477
  C:0EF4H         LINE#         478
  C:0EF7H         LINE#         479
  C:0EF7H         LINE#         480
  C:0EF9H         LINE#         481
  C:0F02H         LINE#         482
  C:0F12H         LINE#         484
  C:0F21H         LINE#         485
BL51 BANKED LINKER/LOCATER V6.22.2.0                                                  03/01/2022  16:31:57  PAGE 52


  C:0F36H         LINE#         486
  C:0F36H         LINE#         487
  C:0F44H         LINE#         488
  C:0F4AH         LINE#         489
  C:0F4AH         LINE#         490
  C:0F58H         LINE#         491
  C:0F67H         LINE#         492
  C:0F6AH         LINE#         493
  C:0F6AH         LINE#         494
  C:0F6CH         LINE#         495
  C:0F75H         LINE#         496
  C:0F85H         LINE#         498
  C:0F94H         LINE#         499
  C:0FA9H         LINE#         500
  C:0FA9H         LINE#         501
  C:0FB7H         LINE#         502
  C:0FBDH         LINE#         503
  C:0FBDH         LINE#         504
  C:0FCBH         LINE#         505
  C:0FDAH         LINE#         506
  C:0FDDH         LINE#         507
  C:0FDDH         LINE#         508
  C:0FDFH         LINE#         509
  C:0FEFH         LINE#         511
  C:0FFEH         LINE#         512
  C:100DH         LINE#         513
  C:100FH         LINE#         514
  C:100FH         LINE#         515
  C:1011H         LINE#         516
  C:1021H         LINE#         517
  C:1031H         LINE#         518
  C:1040H         LINE#         520
  C:1042H         LINE#         521
  C:1042H         LINE#         522
  C:1044H         LINE#         523
  C:1054H         LINE#         524
  C:1064H         LINE#         525
  C:1073H         LINE#         527
  C:1073H         LINE#         528
  C:1073H         LINE#         529
  C:1073H         LINE#         530
  C:1073H         LINE#         531
  C:1083H         LINE#         532
  C:1083H         LINE#         533
  C:10AEH         LINE#         534
  C:10AEH         LINE#         535
  C:10C4H         LINE#         536
  C:10CAH         LINE#         537
  C:10CFH         LINE#         538
  C:10D1H         LINE#         539
  C:10E1H         LINE#         540
  C:10F1H         LINE#         541
  C:1100H         LINE#         542
  C:112DH         LINE#         543
  C:112FH         LINE#         544
  C:112FH         LINE#         545
  C:1134H         LINE#         546
BL51 BANKED LINKER/LOCATER V6.22.2.0                                                  03/01/2022  16:31:57  PAGE 53


  C:113AH         LINE#         547
  C:113CH         LINE#         548
  C:114CH         LINE#         549
  C:115BH         LINE#         550
  C:116BH         LINE#         551
  C:1198H         LINE#         552
  C:1198H         LINE#         553
  C:1198H         LINE#         554
  C:11C9H         LINE#         555
  C:11C9H         LINE#         556
  C:11D7H         LINE#         557
  C:11E5H         LINE#         558
  C:11F0H         LINE#         559
  C:11F6H         LINE#         560
  C:11FCH         LINE#         561
  C:1205H         LINE#         562
  C:1205H         LINE#         563
  C:1205H         LINE#         564
  C:1222H         LINE#         565
  C:12B4H         LINE#         566
  C:12B4H         LINE#         568
  C:12C6H         LINE#         569
  C:12C6H         LINE#         570
  C:12C6H         LINE#         572
  C:1397H         LINE#         574
  C:1397H         LINE#         575
  C:13A5H         LINE#         576
  C:13BCH         LINE#         577
  C:13C5H         LINE#         578
  C:13C5H         LINE#         581
  C:13C5H         LINE#         583
  C:13C8H         LINE#         585
  C:13C8H         LINE#         588
  C:13E9H         LINE#         589
  C:13E9H         LINE#         590
  C:13F7H         LINE#         591
  C:1401H         LINE#         592
  C:1403H         LINE#         593
  C:1403H         LINE#         594
  C:1412H         LINE#         595
  C:1412H         LINE#         596
  C:1423H         LINE#         597
  C:1423H         LINE#         598
  C:1432H         LINE#         599
  C:1442H         LINE#         600
  C:1444H         LINE#         601
  C:1455H         LINE#         602
  C:1455H         LINE#         603
  C:1465H         LINE#         604
  C:1475H         LINE#         605
  C:1477H         LINE#         607
  C:1477H         LINE#         608
  C:1487H         LINE#         609
  C:1496H         LINE#         610
  C:1496H         LINE#         611
  C:1498H         LINE#         613
  C:1498H         LINE#         614
BL51 BANKED LINKER/LOCATER V6.22.2.0                                                  03/01/2022  16:31:57  PAGE 54


  C:14A6H         LINE#         615
  C:14B6H         LINE#         616
  C:14B6H         LINE#         617
  C:14C4H         LINE#         618
  C:14D2H         LINE#         619
  C:14E2H         LINE#         621
  C:152FH         LINE#         623
  C:1540H         LINE#         624
  C:1544H         LINE#         625
  C:1550H         LINE#         626
  C:1552H         LINE#         628
  C:156CH         LINE#         630
  C:15A1H         LINE#         631
  C:15C7H         LINE#         632
  C:15C9H         LINE#         633
  C:15FFH         LINE#         635
  C:1615H         LINE#         636
  C:1615H         LINE#         637
  C:1623H         LINE#         638
  C:1631H         LINE#         639
  C:163FH         LINE#         640
  C:163FH         LINE#         641
  C:1657H         LINE#         642
  C:1657H         LINE#         643
  C:1667H         LINE#         644
  C:1675H         LINE#         645
  C:1675H         LINE#         646
  C:167AH         LINE#         647
  C:167AH         LINE#         648
  C:1686H         LINE#         649
  C:1694H         LINE#         650
  -------         ENDPROC       ID_DECODE_OUT
  -------         PROC          _RETURN_ID_DATA
  D:0069H         SYMBOL        i
  -------         DO            
  I:00BEH         SYMBOL        ID_dat
  I:00C2H         SYMBOL        xn
  -------         ENDDO         
  C:6FAAH         LINE#         653
  C:6FACH         LINE#         654
  C:6FACH         LINE#         655
  C:6FB5H         LINE#         657
  C:6FB9H         LINE#         658
  C:6FD0H         LINE#         659
  C:6FE7H         LINE#         660
  C:6FFEH         LINE#         661
  C:7008H         LINE#         662
  C:700DH         LINE#         663
  -------         ENDPROC       _RETURN_ID_DATA
  -------         ENDMOD        ID_DECODE

  -------         MODULE        ML7345
  C:0000H         SYMBOL        _ICE_DUMMY_
  X:05C7H         PUBLIC        First_TX_Scan
  X:05C8H         PUBLIC        APP_TX_freq
  D:0090H         PUBLIC        P1
  D:00A0H         PUBLIC        P2
BL51 BANKED LINKER/LOCATER V6.22.2.0                                                  03/01/2022  16:31:57  PAGE 55


  D:00C0H         PUBLIC        XICON
  D:00B0H         PUBLIC        P3
  D:00E8H         PUBLIC        P4
  D:00F8H         PUBLIC        P5
  D:00F8H         PUBLIC        P6
  C:1695H         PUBLIC        APP_TX_PACKET
  D:00A8H         PUBLIC        IE
  C:73B1H         PUBLIC        ML7345_MeasurBER_Init
  X:05C9H         PUBLIC        Receiver_vent_Cache
  C:6E59H         PUBLIC        Uart_RF_Ber_Test
  X:05CAH         PUBLIC        tx_pack_cnt
  C:7121H         PUBLIC        RF_Ber_Test
  D:00B8H         PUBLIC        IP0L
  X:05CBH         PUBLIC        Fre_429_350
  X:05D3H         PUBLIC        Fre_426_750
  X:05DBH         PUBLIC        Fre_426_075
  X:05E3H         PUBLIC        Fre_429_550
  C:61DAH         PUBLIC        ML7345d_Change_Channel
  X:05EBH         PUBLIC        Fre_429_175
  X:05F3H         PUBLIC        Freq_SetBuff
  D:00D8H         PUBLIC        CCON
  C:6542H         PUBLIC        SCAN_RECEIVE_PACKET
  C:7172H         PUBLIC        _Tx_Data_Test
  X:05FBH         PUBLIC        TX_Scan_step
  B:00E8H.0       PUBLIC        P40
  B:00A0H.2       PUBLIC        P22
  B:0090H.3       PUBLIC        P13
  B:00E8H.1       PUBLIC        P41
  B:00A0H.3       PUBLIC        P23
  D:0088H         PUBLIC        TCON
  B:00A0H.4       PUBLIC        P24
  B:00A0H.5       PUBLIC        P25
  B:00B0H.5       PUBLIC        P35
  B:00A0H.7       PUBLIC        P27
  C:6301H         PUBLIC        ML7345D_Freq_Scanning
  X:05FCH         PUBLIC        rf_offset
  C:5C31H         PUBLIC        ML7345_TRX_Del
  C:6D63H         PUBLIC        DataReceive
  C:4D9DH         PUBLIC        ML7345D_RF_test_mode
  X:05FDH         PUBLIC        Radio_Date_Type
  X:05FEH         PUBLIC        SPI_RECEIVE_BUFF
  C:4314H         PUBLIC        _RF_ML7345_Init
  X:0626H         PUBLIC        SPI_Receive_DataForC
  C:3E47H         PUBLIC        _TX_DataLoad_HighSpeed
  D:0098H         PUBLIC        S0CON
  D:0098H         PUBLIC        S1CON
  X:0642H         PUBLIC        Radio_Date_Type_bak
  D:00C8H         PUBLIC        T2CON
  C:60B1H         PUBLIC        RX_ANALYSIS
  D:00D0H         PUBLIC        PSW
  -------         PROC          _RF_ML7345_INIT
  D:0032H         SYMBOL        freq
  D:0035H         SYMBOL        sync
  D:0036H         SYMBOL        rx_len
  C:4314H         LINE#         44
  C:431CH         LINE#         45
  C:431CH         LINE#         46
BL51 BANKED LINKER/LOCATER V6.22.2.0                                                  03/01/2022  16:31:57  PAGE 56


  C:431FH         LINE#         47
  C:431FH         LINE#         48
  C:432AH         LINE#         49
  C:432CH         LINE#         50
  C:432CH         LINE#         51
  C:432EH         LINE#         52
  C:4335H         LINE#         53
  C:433CH         LINE#         54
  C:4343H         LINE#         55
  C:434AH         LINE#         56
  C:4351H         LINE#         57
  C:4358H         LINE#         58
  C:435FH         LINE#         59
  C:4366H         LINE#         60
  C:436DH         LINE#         61
  C:4374H         LINE#         62
  C:437BH         LINE#         63
  C:4382H         LINE#         64
  C:4389H         LINE#         65
  C:4390H         LINE#         66
  C:4397H         LINE#         67
  C:439EH         LINE#         68
  C:43A5H         LINE#         69
  C:43ACH         LINE#         70
  C:43B3H         LINE#         71
  C:43BAH         LINE#         72
  C:43C1H         LINE#         73
  C:43C8H         LINE#         74
  C:43CFH         LINE#         75
  C:43D6H         LINE#         76
  C:43DDH         LINE#         77
  C:43E4H         LINE#         78
  C:43EBH         LINE#         80
  C:43F2H         LINE#         82
  C:43F9H         LINE#         84
  C:4400H         LINE#         86
  C:4407H         LINE#         87
  C:440EH         LINE#         89
  C:4415H         LINE#         91
  C:441CH         LINE#         92
  C:4423H         LINE#         93
  C:442AH         LINE#         94
  C:4431H         LINE#         96
  C:4438H         LINE#         98
  C:443FH         LINE#         100
  C:4446H         LINE#         102
  C:444DH         LINE#         103
  C:4454H         LINE#         104
  C:445BH         LINE#         106
  C:4462H         LINE#         108
  C:4469H         LINE#         109
  C:4470H         LINE#         111
  C:4477H         LINE#         112
  C:447EH         LINE#         116
  C:4485H         LINE#         117
  C:448CH         LINE#         118
  C:4493H         LINE#         119
BL51 BANKED LINKER/LOCATER V6.22.2.0                                                  03/01/2022  16:31:57  PAGE 57


  C:449AH         LINE#         120
  C:44A1H         LINE#         122
  C:44A8H         LINE#         124
  C:44AFH         LINE#         126
  C:44B6H         LINE#         128
  C:44C5H         LINE#         129
  C:44DAH         LINE#         130
  C:44EFH         LINE#         131
  C:4504H         LINE#         132
  C:4513H         LINE#         133
  C:4528H         LINE#         134
  C:453DH         LINE#         135
  C:4552H         LINE#         137
  C:4559H         LINE#         138
  C:4560H         LINE#         140
  C:4567H         LINE#         141
  C:456EH         LINE#         142
  C:4575H         LINE#         143
  C:457CH         LINE#         144
  C:4583H         LINE#         145
  C:458AH         LINE#         147
  C:4591H         LINE#         148
  C:4598H         LINE#         149
  C:459FH         LINE#         153
  C:45B4H         LINE#         154
  C:45C9H         LINE#         155
  C:45DEH         LINE#         156
  C:45F3H         LINE#         157
  C:45FAH         LINE#         158
  C:4601H         LINE#         159
  C:4608H         LINE#         161
  C:460FH         LINE#         162
  C:4616H         LINE#         163
  C:461DH         LINE#         164
  C:4624H         LINE#         165
  C:462BH         LINE#         167
  C:462EH         LINE#         169
  C:4635H         LINE#         170
  C:463CH         LINE#         173
  C:4643H         LINE#         174
  C:464AH         LINE#         176
  C:4651H         LINE#         177
  C:4658H         LINE#         178
  C:465FH         LINE#         179
  C:4666H         LINE#         180
  C:466DH         LINE#         181
  C:4674H         LINE#         182
  C:467BH         LINE#         183
  C:4682H         LINE#         185
  C:46BFH         LINE#         186
  C:46C2H         LINE#         189
  C:46C9H         LINE#         190
  C:46D0H         LINE#         191
  C:46D0H         LINE#         192
  C:46DBH         LINE#         193
  C:46DDH         LINE#         194
  C:46DDH         LINE#         195
BL51 BANKED LINKER/LOCATER V6.22.2.0                                                  03/01/2022  16:31:57  PAGE 58


  C:46DFH         LINE#         196
  C:46E2H         LINE#         197
  -------         ENDPROC       _RF_ML7345_INIT
  -------         PROC          ML7345_MEASURBER_INIT
  C:73B1H         LINE#         199
  C:73B1H         LINE#         200
  C:73B1H         LINE#         201
  C:73B8H         LINE#         202
  C:73BFH         LINE#         204
  C:73C6H         LINE#         205
  C:73CDH         LINE#         207
  C:73D4H         LINE#         208
  C:73DBH         LINE#         209
  C:73E2H         LINE#         211
  C:73E9H         LINE#         212
  C:73F0H         LINE#         213
  -------         ENDPROC       ML7345_MEASURBER_INIT
  -------         PROC          DATARECEIVE
  -------         DO            
  D:0059H         SYMBOL        StateCache
  D:005AH         SYMBOL        Cache
  D:005BH         SYMBOL        X_HISbyte
  -------         ENDDO         
  C:6D63H         LINE#         216
  C:6D63H         LINE#         217
  C:6D63H         LINE#         221
  C:6D75H         LINE#         222
  C:6D75H         LINE#         223
  C:6D75H         LINE#         224
  C:6D75H         LINE#         225
  C:6D7BH         LINE#         226
  C:6D7EH         LINE#         227
  C:6D80H         LINE#         228
  C:6D8AH         LINE#         229
  C:6D8AH         LINE#         230
  C:6D8DH         LINE#         231
  C:6D90H         LINE#         232
  C:6D93H         LINE#         233
  C:6D93H         LINE#         234
  C:6D93H         LINE#         235
  C:6D94H         LINE#         236
  C:6D94H         LINE#         237
  C:6D94H         LINE#         238
  C:6D9EH         LINE#         239
  C:6DACH         LINE#         240
  C:6DBAH         LINE#         241
  C:6DBDH         LINE#         242
  C:6DCEH         LINE#         243
  C:6DD1H         LINE#         244
  C:6DD1H         LINE#         245
  C:6DD2H         LINE#         246
  C:6DD2H         LINE#         247
  C:6DDEH         LINE#         248
  C:6DE1H         LINE#         249
  C:6DE1H         LINE#         250
  C:6DE1H         LINE#         251
  C:6DE1H         LINE#         252
BL51 BANKED LINKER/LOCATER V6.22.2.0                                                  03/01/2022  16:31:57  PAGE 59


  C:6DE1H         LINE#         253
  -------         ENDPROC       DATARECEIVE
  -------         PROC          _TX_DATA_TEST
  D:006AH         SYMBOL        mode
  C:7172H         LINE#         257
  C:7174H         LINE#         258
  C:7174H         LINE#         259
  C:717BH         LINE#         260
  C:7190H         LINE#         261
  C:7190H         LINE#         263
  C:7199H         LINE#         266
  C:71A2H         LINE#         269
  C:71ABH         LINE#         272
  C:71B4H         LINE#         275
  C:71B4H         LINE#         276
  C:71BBH         LINE#         277
  C:71BBH         LINE#         278
  C:71BBH         LINE#         279
  C:71C0H         LINE#         280
  -------         ENDPROC       _TX_DATA_TEST
  -------         PROC          RF_BER_TEST
  C:7121H         LINE#         283
  C:7121H         LINE#         284
  C:7121H         LINE#         285
  C:7132H         LINE#         286
  C:7132H         LINE#         287
  C:7147H         LINE#         288
  C:7149H         LINE#         289
  C:7151H         LINE#         290
  C:7159H         LINE#         291
  C:7163H         LINE#         292
  C:7163H         LINE#         293
  C:716FH         LINE#         294
  C:7171H         LINE#         295
  -------         ENDPROC       RF_BER_TEST
  -------         PROC          UART_RF_BER_TEST
  C:6E59H         LINE#         297
  C:6E59H         LINE#         298
  C:6E59H         LINE#         299
  C:6E6AH         LINE#         300
  C:6E6AH         LINE#         301
  C:6E83H         LINE#         302
  C:6E90H         LINE#         304
  C:6EA5H         LINE#         305
  C:6EA7H         LINE#         307
  C:6EAFH         LINE#         308
  C:6EB7H         LINE#         309
  C:6EC1H         LINE#         310
  C:6EC1H         LINE#         311
  C:6ECDH         LINE#         312
  C:6ECFH         LINE#         313
  -------         ENDPROC       UART_RF_BER_TEST
  -------         PROC          APP_TX_PACKET
  -------         DO            
  X:05BEH         SYMBOL        rssi
  X:05BFH         SYMBOL        i
  X:05C0H         SYMBOL        j
BL51 BANKED LINKER/LOCATER V6.22.2.0                                                  03/01/2022  16:31:57  PAGE 60


  -------         ENDDO         
  C:1695H         LINE#         315
  C:1695H         LINE#         316
  C:1695H         LINE#         318
  C:16A0H         LINE#         320
  C:16C8H         LINE#         322
  C:16E5H         LINE#         323
  C:16E5H         LINE#         324
  C:16F3H         LINE#         325
  C:1701H         LINE#         326
  C:1701H         LINE#         327
  C:17CFH         LINE#         330
  C:17CFH         LINE#         331
  C:1818H         LINE#         333
  C:1826H         LINE#         334
  C:182CH         LINE#         335
  C:1832H         LINE#         336
  C:183CH         LINE#         337
  C:184FH         LINE#         338
  C:184FH         LINE#         339
  C:188AH         LINE#         340
  C:1890H         LINE#         341
  C:1896H         LINE#         342
  C:18A5H         LINE#         343
  C:18A7H         LINE#         344
  C:18B9H         LINE#         345
  C:18B9H         LINE#         346
  C:18C7H         LINE#         347
  C:18D5H         LINE#         348
  C:18E3H         LINE#         349
  C:18E3H         LINE#         351
  C:18E9H         LINE#         352
  C:18F7H         LINE#         353
  C:1905H         LINE#         355
  C:190AH         LINE#         356
  C:1910H         LINE#         357
  C:1915H         LINE#         359
  C:1918H         LINE#         360
  C:19F7H         LINE#         366
  C:19F7H         LINE#         367
  C:1A05H         LINE#         368
  C:1A13H         LINE#         369
  C:1A38H         LINE#         370
  C:1A4AH         LINE#         371
  C:1A6AH         LINE#         372
  C:1A78H         LINE#         373
  C:1A93H         LINE#         374
  C:1A9DH         LINE#         375
  C:1AD5H         LINE#         376
  C:1AE3H         LINE#         377
  C:1AEBH         LINE#         379
  C:1AF1H         LINE#         380
  C:1AFFH         LINE#         381
  C:1B0DH         LINE#         382
  C:1B12H         LINE#         383
  C:1B18H         LINE#         384
  C:1B1DH         LINE#         386
BL51 BANKED LINKER/LOCATER V6.22.2.0                                                  03/01/2022  16:31:57  PAGE 61


  C:1B22H         LINE#         387
  C:1B2CH         LINE#         388
  C:1B2CH         LINE#         389
  C:1B45H         LINE#         390
  C:1B45H         LINE#         391
  C:1B58H         LINE#         392
  C:1B68H         LINE#         393
  C:1B68H         LINE#         394
  C:1B76H         LINE#         395
  C:1B76H         LINE#         396
  C:1B82H         LINE#         397
  C:1B89H         LINE#         398
  C:1B8BH         LINE#         399
  C:1BDDH         LINE#         400
  C:1BE2H         LINE#         401
  C:1BE9H         LINE#         402
  C:1BF0H         LINE#         403
  C:1BF7H         LINE#         404
  C:1BFAH         LINE#         405
  C:1C05H         LINE#         406
  C:1C0CH         LINE#         407
  C:1C12H         LINE#         408
  C:1C15H         LINE#         409
  C:1C46H         LINE#         410
  C:1C46H         LINE#         411
  C:1C52H         LINE#         412
  C:1C5DH         LINE#         413
  C:1C64H         LINE#         414
  C:1C6AH         LINE#         415
  C:1C6DH         LINE#         416
  C:1C9DH         LINE#         417
  C:1C9DH         LINE#         418
  C:1CA9H         LINE#         419
  C:1CAFH         LINE#         420
  C:1CBDH         LINE#         421
  C:1CCBH         LINE#         422
  C:1CD1H         LINE#         423
  C:1CD3H         LINE#         424
  C:1CE1H         LINE#         425
  C:1CEDH         LINE#         426
  C:1CEDH         LINE#         427
  C:1CEDH         LINE#         428
  C:1CEDH         LINE#         429
  C:1D25H         LINE#         430
  C:1D25H         LINE#         431
  C:1D33H         LINE#         432
  C:1D41H         LINE#         433
  C:1D42H         LINE#         434
  C:1D99H         LINE#         435
  C:1D99H         LINE#         436
  C:1DC5H         LINE#         437
  C:1DEFH         LINE#         438
  C:1DF2H         LINE#         439
  C:1DFDH         LINE#         440
  C:1E04H         LINE#         441
  C:1E0AH         LINE#         442
  C:1E1CH         LINE#         443
BL51 BANKED LINKER/LOCATER V6.22.2.0                                                  03/01/2022  16:31:57  PAGE 62


  C:1E1CH         LINE#         444
  C:1E21H         LINE#         445
  C:1E2DH         LINE#         446
  C:1E3BH         LINE#         447
  C:1E3DH         LINE#         448
  C:1E3DH         LINE#         449
  C:1E3DH         LINE#         450
  -------         ENDPROC       APP_TX_PACKET
  -------         PROC          ML7345D_RF_TEST_MODE
  C:4D9DH         LINE#         453
  C:4D9DH         LINE#         454
  C:4D9DH         LINE#         455
  C:4D9FH         LINE#         456
  C:4DABH         LINE#         457
  C:4DB7H         LINE#         458
  C:4DBDH         LINE#         459
  C:4DBDH         LINE#         460
  C:4DCBH         LINE#         461
  C:4DCBH         LINE#         463
  C:4DCDH         LINE#         464
  C:4DD8H         LINE#         465
  C:4DD8H         LINE#         466
  C:4DE4H         LINE#         467
  C:4DE7H         LINE#         468
  C:4DFFH         LINE#         469
  C:4DFFH         LINE#         470
  C:4E02H         LINE#         471
  C:4E02H         LINE#         472
  C:4E05H         LINE#         473
  C:4E0CH         LINE#         475
  C:4E12H         LINE#         476
  C:4E14H         LINE#         478
  C:4E14H         LINE#         479
  C:4E17H         LINE#         480
  C:4E1FH         LINE#         482
  C:4E25H         LINE#         483
  C:4E25H         LINE#         484
  C:4E40H         LINE#         485
  C:4E40H         LINE#         486
  C:4E44H         LINE#         487
  C:4E52H         LINE#         488
  C:4E54H         LINE#         489
  C:4E62H         LINE#         490
  C:4E6EH         LINE#         491
  C:4E78H         LINE#         492
  C:4E83H         LINE#         493
  C:4E83H         LINE#         494
  C:4E85H         LINE#         495
  C:4E93H         LINE#         496
  C:4EA1H         LINE#         497
  C:4EBAH         LINE#         498
  C:4EBAH         LINE#         499
  C:4EC8H         LINE#         500
  C:4ECDH         LINE#         501
  C:4ED8H         LINE#         502
  C:4EDDH         LINE#         503
  C:4EDDH         LINE#         504
BL51 BANKED LINKER/LOCATER V6.22.2.0                                                  03/01/2022  16:31:57  PAGE 63


  C:4EDFH         LINE#         506
  C:4EDFH         LINE#         507
  C:4EEBH         LINE#         508
  C:4EEBH         LINE#         509
  C:4EF5H         LINE#         510
  C:4EF7H         LINE#         511
  C:4EF7H         LINE#         512
  C:4F05H         LINE#         513
  C:4F13H         LINE#         514
  C:4F26H         LINE#         515
  C:4F26H         LINE#         516
  C:4F34H         LINE#         517
  C:4F39H         LINE#         518
  C:4F44H         LINE#         519
  C:4F49H         LINE#         520
  C:4F49H         LINE#         521
  C:4F49H         LINE#         522
  C:4F49H         LINE#         524
  C:4F66H         LINE#         525
  C:4F66H         LINE#         526
  C:4F6AH         LINE#         527
  C:4F78H         LINE#         528
  C:4F7AH         LINE#         529
  C:4F88H         LINE#         530
  C:4F96H         LINE#         531
  C:4FA4H         LINE#         532
  C:4FB8H         LINE#         533
  C:4FB8H         LINE#         534
  C:4FC6H         LINE#         535
  C:4FCBH         LINE#         536
  C:4FD5H         LINE#         537
  C:4FE0H         LINE#         538
  C:4FE3H         LINE#         539
  C:4FE8H         LINE#         540
  C:4FE8H         LINE#         541
  C:4FF5H         LINE#         542
  C:4FF5H         LINE#         543
  C:5001H         LINE#         544
  C:5001H         LINE#         545
  C:500BH         LINE#         546
  C:500DH         LINE#         547
  C:500DH         LINE#         549
  C:500DH         LINE#         550
  C:501AH         LINE#         551
  C:501AH         LINE#         552
  C:501DH         LINE#         553
  C:501DH         LINE#         554
  C:501DH         LINE#         555
  C:501DH         LINE#         556
  C:5020H         LINE#         557
  C:5023H         LINE#         558
  C:5033H         LINE#         559
  C:5033H         LINE#         561
  C:5038H         LINE#         562
  C:5046H         LINE#         563
  C:5046H         LINE#         564
  C:5050H         LINE#         566
BL51 BANKED LINKER/LOCATER V6.22.2.0                                                  03/01/2022  16:31:57  PAGE 64


  C:505CH         LINE#         567
  C:5068H         LINE#         568
  C:506BH         LINE#         569
  C:506EH         LINE#         570
  C:507CH         LINE#         571
  C:5084H         LINE#         572
  C:5086H         LINE#         573
  C:5088H         LINE#         574
  C:5096H         LINE#         576
  C:50A0H         LINE#         577
  C:50AEH         LINE#         578
  -------         ENDPROC       ML7345D_RF_TEST_MODE
  -------         PROC          ML7345D_CHANGE_CHANNEL
  C:61DAH         LINE#         580
  C:61DAH         LINE#         581
  C:61DAH         LINE#         582
  C:6219H         LINE#         583
  C:6219H         LINE#         584
  C:6223H         LINE#         585
  C:6229H         LINE#         586
  C:622DH         LINE#         587
  C:623BH         LINE#         588
  C:623CH         LINE#         590
  C:623CH         LINE#         591
  C:6254H         LINE#         592
  C:6254H         LINE#         593
  C:6254H         LINE#         594
  C:625AH         LINE#         595
  C:6264H         LINE#         596
  C:6272H         LINE#         597
  C:6293H         LINE#         598
  C:6297H         LINE#         599
  C:6298H         LINE#         601
  C:6298H         LINE#         602
  C:629EH         LINE#         603
  C:62A8H         LINE#         604
  C:62B6H         LINE#         605
  C:62BAH         LINE#         606
  C:62BBH         LINE#         608
  C:62BBH         LINE#         609
  C:62C1H         LINE#         610
  C:62CBH         LINE#         611
  C:62D9H         LINE#         612
  C:62DDH         LINE#         613
  C:62DEH         LINE#         615
  C:62DEH         LINE#         616
  C:62E4H         LINE#         617
  C:62EEH         LINE#         618
  C:62FCH         LINE#         619
  C:6300H         LINE#         620
  C:6300H         LINE#         622
  C:6300H         LINE#         623
  C:6300H         LINE#         624
  C:6300H         LINE#         625
  C:6300H         LINE#         626
  -------         ENDPROC       ML7345D_CHANGE_CHANNEL
  -------         PROC          ML7345D_FREQ_SCANNING
BL51 BANKED LINKER/LOCATER V6.22.2.0                                                  03/01/2022  16:31:57  PAGE 65


  C:6301H         LINE#         628
  C:6301H         LINE#         629
  C:6301H         LINE#         630
  C:630FH         LINE#         631
  C:630FH         LINE#         632
  C:631AH         LINE#         633
  C:631DH         LINE#         634
  C:632CH         LINE#         635
  C:632CH         LINE#         636
  C:6336H         LINE#         637
  C:6362H         LINE#         638
  C:638EH         LINE#         639
  C:63B8H         LINE#         640
  C:63BBH         LINE#         641
  C:63BBH         LINE#         642
  C:63C0H         LINE#         643
  C:63C4H         LINE#         645
  C:63D1H         LINE#         646
  C:63DAH         LINE#         647
  C:63ECH         LINE#         648
  C:63F3H         LINE#         649
  C:63FFH         LINE#         650
  C:640BH         LINE#         651
  C:6410H         LINE#         652
  C:641AH         LINE#         654
  C:6427H         LINE#         655
  -------         ENDPROC       ML7345D_FREQ_SCANNING
  -------         PROC          ML7345_TRX_DEL
  -------         DO            
  I:00DAH         SYMBOL        reg
  -------         ENDDO         
  C:5C31H         LINE#         658
  C:5C31H         LINE#         659
  C:5C31H         LINE#         660
  C:5C35H         LINE#         661
  C:5C50H         LINE#         663
  C:5C5FH         LINE#         664
  C:5C5FH         LINE#         665
  C:5C66H         LINE#         666
  C:5C72H         LINE#         667
  C:5CA1H         LINE#         668
  C:5CA1H         LINE#         669
  C:5CAFH         LINE#         670
  C:5CB4H         LINE#         671
  C:5CD0H         LINE#         672
  C:5CD0H         LINE#         673
  C:5CDAH         LINE#         674
  C:5CEDH         LINE#         675
  C:5CFBH         LINE#         676
  C:5CFDH         LINE#         677
  C:5D32H         LINE#         678
  C:5D65H         LINE#         679
  C:5D68H         LINE#         680
  C:5D6DH         LINE#         681
  C:5D71H         LINE#         682
  C:5D71H         LINE#         683
  C:5D7DH         LINE#         684
BL51 BANKED LINKER/LOCATER V6.22.2.0                                                  03/01/2022  16:31:57  PAGE 66


  C:5D84H         LINE#         685
  C:5D84H         LINE#         687
  C:5D90H         LINE#         688
  C:5D90H         LINE#         689
  C:5DA7H         LINE#         690
  C:5DB3H         LINE#         691
  C:5DBAH         LINE#         693
  C:5DBAH         LINE#         695
  C:5DC3H         LINE#         696
  C:5DD7H         LINE#         697
  C:5DD7H         LINE#         698
  C:5DE3H         LINE#         699
  C:5DE9H         LINE#         700
  C:5DEEH         LINE#         701
  C:5DEEH         LINE#         702
  -------         ENDPROC       ML7345_TRX_DEL
  -------         PROC          RX_ANALYSIS
  -------         DO            
  X:05C1H         SYMBOL        i
  -------         ENDDO         
  C:60B1H         LINE#         704
  C:60B1H         LINE#         705
  C:60B1H         LINE#         707
  C:60CBH         LINE#         708
  C:60CBH         LINE#         712
  C:61B0H         LINE#         713
  C:61B9H         LINE#         714
  C:61C8H         LINE#         715
  C:61C8H         LINE#         716
  C:61D6H         LINE#         717
  C:61D9H         LINE#         718
  C:61D9H         LINE#         719
  -------         ENDPROC       RX_ANALYSIS
  -------         PROC          SCAN_RECEIVE_PACKET
  -------         DO            
  X:05C2H         SYMBOL        Cache
  -------         ENDDO         
  C:6542H         LINE#         721
  C:6542H         LINE#         722
  C:6542H         LINE#         724
  C:654DH         LINE#         725
  C:654DH         LINE#         726
  C:6559H         LINE#         727
  C:6575H         LINE#         728
  C:6575H         LINE#         729
  C:6585H         LINE#         730
  C:6590H         LINE#         731
  C:6592H         LINE#         732
  C:659DH         LINE#         733
  C:65A2H         LINE#         734
  C:65A5H         LINE#         735
  C:65B1H         LINE#         737
  C:65B6H         LINE#         738
  C:65C5H         LINE#         739
  C:65F3H         LINE#         740
  C:65F9H         LINE#         741
  C:661DH         LINE#         742
BL51 BANKED LINKER/LOCATER V6.22.2.0                                                  03/01/2022  16:31:57  PAGE 67


  C:6624H         LINE#         743
  C:662BH         LINE#         744
  C:6632H         LINE#         745
  C:6637H         LINE#         746
  C:663BH         LINE#         747
  C:6647H         LINE#         748
  C:664EH         LINE#         749
  C:664EH         LINE#         750
  -------         ENDPROC       SCAN_RECEIVE_PACKET
  -------         PROC          _TX_DATALOAD_HIGHSPEED
  D:0008H         SYMBOL        IDCache
  D:000CH         SYMBOL        CtrCmd
  D:0015H         SYMBOL        Packet
  -------         DO            
  X:05C4H         SYMBOL        i
  X:05C5H         SYMBOL        CRCTemp
  -------         ENDDO         
  C:3E47H         LINE#         792
  C:3E4FH         LINE#         793
  C:3E4FH         LINE#         795
  C:3E57H         LINE#         797
  C:3EA8H         LINE#         798
  C:3EBFH         LINE#         799
  C:3EE3H         LINE#         801
  C:3EFDH         LINE#         802
  C:3EFDH         LINE#         803
  C:3F22H         LINE#         804
  C:3F7EH         LINE#         805
  C:3F87H         LINE#         806
  C:3F9FH         LINE#         807
  C:3F9FH         LINE#         808
  C:3FC4H         LINE#         809
  C:4008H         LINE#         810
  C:4011H         LINE#         811
  C:4014H         LINE#         812
  C:402CH         LINE#         813
  C:402CH         LINE#         814
  C:4051H         LINE#         815
  C:409FH         LINE#         816
  C:40A8H         LINE#         817
  C:40C0H         LINE#         818
  C:40C0H         LINE#         819
  C:40E5H         LINE#         820
  C:4133H         LINE#         821
  C:413CH         LINE#         822
  C:413FH         LINE#         823
  C:4157H         LINE#         824
  C:4157H         LINE#         825
  C:417CH         LINE#         826
  C:41CAH         LINE#         827
  C:41D3H         LINE#         828
  C:41EBH         LINE#         829
  C:41EBH         LINE#         830
  C:4210H         LINE#         831
  C:425EH         LINE#         832
  C:4267H         LINE#         833
  C:426AH         LINE#         834
BL51 BANKED LINKER/LOCATER V6.22.2.0                                                  03/01/2022  16:31:57  PAGE 68


  C:4285H         LINE#         835
  C:4285H         LINE#         836
  C:42AAH         LINE#         837
  C:430AH         LINE#         838
  C:4313H         LINE#         839
  -------         ENDPROC       _TX_DATALOAD_HIGHSPEED
  -------         ENDMOD        ML7345

  -------         MODULE        ML7345_HAL
  C:0000H         SYMBOL        _ICE_DUMMY_
  C:6AC4H         PUBLIC        ML7345_DataRate_Set_4_8k
  D:0090H         PUBLIC        P1
  D:00A0H         PUBLIC        P2
  D:00C0H         PUBLIC        XICON
  D:00B0H         PUBLIC        P3
  D:00E8H         PUBLIC        P4
  D:00F8H         PUBLIC        P5
  D:00F8H         PUBLIC        P6
  D:00A8H         PUBLIC        IE
  C:73F1H         PUBLIC        _ML7345_AutoTx_Data
  C:5DEFH         PUBLIC        _ML7345_Frequency_Set
  D:00B8H         PUBLIC        IP0L
  C:674BH         PUBLIC        _ML7345_SetAndGet_State
  C:74E4H         PUBLIC        _ML7345_StateFlag_Clear
  D:00D8H         PUBLIC        CCON
  C:764AH         PUBLIC        _ML7345_AutoStateTransition_Set
  B:00A0H.2       PUBLIC        P22
  C:779EH         PUBLIC        ML7345_AllStateFlag_Clear
  B:00A0H.3       PUBLIC        P23
  D:0088H         PUBLIC        TCON
  B:00B0H.4       PUBLIC        P34
  C:50AFH         PUBLIC        _ML7345_Frequency_Calcul
  C:77D6H         PUBLIC        RF_SyncWord_DONE
  C:7330H         PUBLIC        WaitStatus_Complete
  C:7587H         PUBLIC        SetReg_Rssi
  C:7805H         PUBLIC        ML7345_GPIO0RxDoneInt_Enable
  C:77EFH         PUBLIC        ML7345_GPIO0TxDoneInt_Enable
  D:0098H         PUBLIC        S0CON
  D:0098H         PUBLIC        S1CON
  D:00C8H         PUBLIC        T2CON
  C:7897H         PUBLIC        ML7345_RESETN_SET
  C:6B89H         PUBLIC        ML7345_DataRate_Set_1_2k
  C:761AH         PUBLIC        _ML7345_ReadRx_Pack
  D:00D0H         PUBLIC        PSW
  -------         PROC          _ML7345_AUTOSTATETRANSITION_SET
  D:006BH         SYMBOL        sta
  C:764AH         LINE#         10
  C:764CH         LINE#         11
  C:764CH         LINE#         12
  C:7653H         LINE#         13
  C:7671H         LINE#         14
  C:7678H         LINE#         15
  -------         ENDPROC       _ML7345_AUTOSTATETRANSITION_SET
  -------         PROC          _ML7345_SETANDGET_STATE
  D:006CH         SYMBOL        sta
  -------         DO            
  X:06D8H         SYMBOL        status
BL51 BANKED LINKER/LOCATER V6.22.2.0                                                  03/01/2022  16:31:57  PAGE 69


  -------         ENDDO         
  C:674BH         LINE#         31
  C:674DH         LINE#         32
  C:674DH         LINE#         33
  C:6752H         LINE#         35
  C:6759H         LINE#         36
  C:6768H         LINE#         37
  C:6775H         LINE#         38
  C:6775H         LINE#         39
  C:67A0H         LINE#         40
  C:67A0H         LINE#         41
  C:67A7H         LINE#         42
  C:67AFH         LINE#         43
  C:67C4H         LINE#         44
  C:67C4H         LINE#         45
  C:67DBH         LINE#         46
  C:67DEH         LINE#         47
  C:680AH         LINE#         48
  C:6818H         LINE#         49
  C:681BH         LINE#         50
  C:6822H         LINE#         51
  C:6825H         LINE#         52
  C:6825H         LINE#         53
  C:6834H         LINE#         54
  C:6834H         LINE#         55
  C:6834H         LINE#         56
  C:6839H         LINE#         57
  -------         ENDPROC       _ML7345_SETANDGET_STATE
  -------         PROC          WAITSTATUS_COMPLETE
  -------         DO            
  X:06D9H         SYMBOL        count
  -------         ENDDO         
  C:7330H         LINE#         60
  C:7330H         LINE#         61
  C:7330H         LINE#         62
  C:7338H         LINE#         63
  C:733FH         LINE#         64
  C:733FH         LINE#         65
  C:733FH         LINE#         66
  C:7348H         LINE#         67
  C:7348H         LINE#         68
  C:734FH         LINE#         69
  C:7352H         LINE#         70
  C:7352H         LINE#         71
  C:736BH         LINE#         72
  C:736EH         LINE#         73
  C:7370H         LINE#         74
  -------         ENDPROC       WAITSTATUS_COMPLETE
  -------         PROC          _ML7345_STATEFLAG_CLEAR
  D:006DH         SYMBOL        sta
  C:74E4H         LINE#         81
  C:74E6H         LINE#         82
  C:74E6H         LINE#         83
  C:74EDH         LINE#         84
  C:74F7H         LINE#         85
  C:74F7H         LINE#         86
  C:74FEH         LINE#         87
BL51 BANKED LINKER/LOCATER V6.22.2.0                                                  03/01/2022  16:31:57  PAGE 70


  C:7505H         LINE#         88
  C:7506H         LINE#         89
  C:750EH         LINE#         90
  C:750EH         LINE#         91
  C:7515H         LINE#         92
  C:751CH         LINE#         93
  C:751CH         LINE#         94
  -------         ENDPROC       _ML7345_STATEFLAG_CLEAR
  -------         PROC          ML7345_ALLSTATEFLAG_CLEAR
  C:779EH         LINE#         101
  C:779EH         LINE#         102
  C:779EH         LINE#         103
  C:77A5H         LINE#         104
  C:77ACH         LINE#         105
  C:77B3H         LINE#         106
  C:77BAH         LINE#         107
  -------         ENDPROC       ML7345_ALLSTATEFLAG_CLEAR
  -------         PROC          ML7345_DATARATE_SET_4_8K
  C:6AC4H         LINE#         115
  C:6AC4H         LINE#         116
  C:6AC4H         LINE#         117
  C:6ACBH         LINE#         118
  C:6AD2H         LINE#         119
  C:6AD9H         LINE#         120
  C:6AE0H         LINE#         121
  C:6AE7H         LINE#         122
  C:6AEEH         LINE#         123
  C:6AF5H         LINE#         124
  C:6AFCH         LINE#         125
  C:6B03H         LINE#         126
  C:6B0AH         LINE#         127
  C:6B11H         LINE#         128
  C:6B18H         LINE#         129
  C:6B1FH         LINE#         130
  C:6B26H         LINE#         131
  C:6B2DH         LINE#         132
  C:6B34H         LINE#         133
  C:6B3BH         LINE#         134
  C:6B42H         LINE#         135
  C:6B49H         LINE#         136
  C:6B50H         LINE#         137
  C:6B57H         LINE#         138
  C:6B5EH         LINE#         139
  C:6B65H         LINE#         140
  C:6B6CH         LINE#         141
  C:6B73H         LINE#         142
  C:6B7AH         LINE#         143
  C:6B81H         LINE#         144
  C:6B88H         LINE#         145
  -------         ENDPROC       ML7345_DATARATE_SET_4_8K
  -------         PROC          ML7345_DATARATE_SET_1_2K
  C:6B89H         LINE#         147
  C:6B89H         LINE#         148
  C:6B89H         LINE#         149
  C:6B90H         LINE#         150
  C:6B97H         LINE#         151
  C:6B9EH         LINE#         152
BL51 BANKED LINKER/LOCATER V6.22.2.0                                                  03/01/2022  16:31:57  PAGE 71


  C:6BA5H         LINE#         153
  C:6BACH         LINE#         154
  C:6BB3H         LINE#         155
  C:6BBAH         LINE#         156
  C:6BC1H         LINE#         157
  C:6BC8H         LINE#         158
  C:6BCFH         LINE#         159
  C:6BD6H         LINE#         160
  C:6BDDH         LINE#         161
  C:6BE4H         LINE#         162
  C:6BEBH         LINE#         163
  C:6BF2H         LINE#         164
  C:6BF9H         LINE#         165
  C:6C00H         LINE#         166
  C:6C07H         LINE#         167
  C:6C0EH         LINE#         168
  C:6C15H         LINE#         169
  C:6C1CH         LINE#         170
  C:6C23H         LINE#         171
  C:6C2AH         LINE#         172
  C:6C31H         LINE#         173
  C:6C38H         LINE#         174
  C:6C3FH         LINE#         175
  -------         ENDPROC       ML7345_DATARATE_SET_1_2K
  -------         PROC          ML7345_RESETN_SET
  C:7897H         LINE#         283
  C:7897H         LINE#         284
  C:7897H         LINE#         285
  C:7899H         LINE#         286
  C:789EH         LINE#         287
  C:78A0H         LINE#         288
  -------         ENDPROC       ML7345_RESETN_SET
  -------         PROC          _ML7345_FREQUENCY_SET
  D:0047H         SYMBOL        freq
  D:004AH         SYMBOL        radio_type
  C:5DEFH         LINE#         326
  C:5DF7H         LINE#         327
  C:5DF7H         LINE#         328
  C:5E03H         LINE#         329
  C:5E10H         LINE#         330
  C:5E15H         LINE#         331
  C:5E1CH         LINE#         332
  C:5E2BH         LINE#         333
  C:5E40H         LINE#         334
  C:5E55H         LINE#         335
  C:5E6AH         LINE#         336
  C:5E79H         LINE#         337
  C:5E8EH         LINE#         338
  C:5EA3H         LINE#         339
  C:5EB8H         LINE#         341
  C:5ECDH         LINE#         342
  C:5EE2H         LINE#         343
  C:5EF7H         LINE#         344
  C:5F0CH         LINE#         346
  C:5F13H         LINE#         347
  C:5F1AH         LINE#         348
  C:5F21H         LINE#         350
BL51 BANKED LINKER/LOCATER V6.22.2.0                                                  03/01/2022  16:31:57  PAGE 72


  C:5F30H         LINE#         351
  C:5F3DH         LINE#         353
  C:5F44H         LINE#         354
  C:5F44H         LINE#         355
  C:5F4FH         LINE#         356
  C:5F51H         LINE#         357
  C:5F51H         LINE#         358
  C:5F53H         LINE#         360
  C:5F5AH         LINE#         361
  C:5F66H         LINE#         362
  -------         ENDPROC       _ML7345_FREQUENCY_SET
  -------         PROC          ML7345_GPIO0TXDONEINT_ENABLE
  C:77EFH         LINE#         392
  C:77EFH         LINE#         393
  C:77EFH         LINE#         395
  C:77F6H         LINE#         396
  C:77FDH         LINE#         397
  C:7804H         LINE#         398
  -------         ENDPROC       ML7345_GPIO0TXDONEINT_ENABLE
  -------         PROC          ML7345_GPIO0RXDONEINT_ENABLE
  C:7805H         LINE#         399
  C:7805H         LINE#         400
  C:7805H         LINE#         401
  C:780CH         LINE#         403
  C:7813H         LINE#         404
  C:781AH         LINE#         405
  -------         ENDPROC       ML7345_GPIO0RXDONEINT_ENABLE
  -------         PROC          _ML7345_READRX_PACK
  D:004BH         SYMBOL        pbuf
  D:004EH         SYMBOL        len
  C:761AH         LINE#         541
  C:7622H         LINE#         542
  C:7622H         LINE#         543
  C:7634H         LINE#         544
  C:763BH         LINE#         545
  C:7649H         LINE#         546
  -------         ENDPROC       _ML7345_READRX_PACK
  -------         PROC          _ML7345_AUTOTX_DATA
  D:004FH         SYMBOL        pbuf
  D:0052H         SYMBOL        len
  C:73F1H         LINE#         553
  C:73F9H         LINE#         554
  C:73F9H         LINE#         555
  C:740BH         LINE#         556
  C:740FH         LINE#         557
  C:7416H         LINE#         558
  C:741DH         LINE#         559
  C:7422H         LINE#         560
  C:7430H         LINE#         561
  -------         ENDPROC       _ML7345_AUTOTX_DATA
  -------         PROC          RF_SYNCWORD_DONE
  -------         DO            
  I:00DBH         SYMBOL        sync
  -------         ENDDO         
  C:77D6H         LINE#         563
  C:77D6H         LINE#         564
  C:77D6H         LINE#         565
BL51 BANKED LINKER/LOCATER V6.22.2.0                                                  03/01/2022  16:31:57  PAGE 73


  C:77DAH         LINE#         566
  C:77E1H         LINE#         567
  C:77EAH         LINE#         568
  C:77EEH         LINE#         569
  -------         ENDPROC       RF_SYNCWORD_DONE
  -------         PROC          _ML7345_FREQUENCY_CALCUL
  D:0021H         SYMBOL        Freq
  D:0025H         SYMBOL        pbuf
  -------         DO            
  X:06DBH         SYMBOL        integer
  X:06DCH         SYMBOL        f_dec
  X:06E0H         SYMBOL        cal_val
  -------         ENDDO         
  C:50AFH         LINE#         571
  C:50BDH         LINE#         572
  C:50BDH         LINE#         573
  C:50C2H         LINE#         574
  C:50CCH         LINE#         575
  C:50D6H         LINE#         576
  C:50EEH         LINE#         577
  C:512FH         LINE#         578
  C:5151H         LINE#         579
  C:5160H         LINE#         580
  C:5193H         LINE#         581
  C:51C6H         LINE#         582
  C:51F4H         LINE#         584
  C:520CH         LINE#         585
  C:5224H         LINE#         586
  C:5265H         LINE#         587
  C:5287H         LINE#         588
  C:529CH         LINE#         589
  C:52CFH         LINE#         590
  C:5302H         LINE#         591
  C:5330H         LINE#         592
  -------         ENDPROC       _ML7345_FREQUENCY_CALCUL
  -------         PROC          SETREG_RSSI
  C:7587H         LINE#         594
  C:7587H         LINE#         595
  C:7587H         LINE#         596
  C:758EH         LINE#         597
  C:7595H         LINE#         598
  C:759CH         LINE#         599
  C:75A3H         LINE#         600
  C:75AAH         LINE#         601
  C:75B1H         LINE#         602
  C:75B8H         LINE#         603
  -------         ENDPROC       SETREG_RSSI
  -------         ENDMOD        ML7345_HAL

  -------         MODULE        ?C?FPADD
  C:25EAH         PUBLIC        ?C?FPADD
  C:25E6H         PUBLIC        ?C?FPSUB
  -------         ENDMOD        ?C?FPADD

  -------         MODULE        ?C?FPMUL
  C:26DBH         PUBLIC        ?C?FPMUL
  -------         ENDMOD        ?C?FPMUL
BL51 BANKED LINKER/LOCATER V6.22.2.0                                                  03/01/2022  16:31:57  PAGE 74



  -------         MODULE        ?C?FPDIV
  C:27E4H         PUBLIC        ?C?FPDIV
  -------         ENDMOD        ?C?FPDIV

  -------         MODULE        ?C?FCAST
  C:288BH         PUBLIC        ?C?FCASTC
  C:2886H         PUBLIC        ?C?FCASTI
  C:2881H         PUBLIC        ?C?FCASTL
  -------         ENDMOD        ?C?FCAST

  -------         MODULE        ?C?CASTF
  C:28BFH         PUBLIC        ?C?CASTF
  -------         ENDMOD        ?C?CASTF

  -------         MODULE        ?C?COPY
  C:2A10H         PUBLIC        ?C?COPY
  -------         ENDMOD        ?C?COPY

  -------         MODULE        ?C?CLDPTR
  C:2A36H         PUBLIC        ?C?CLDPTR
  -------         ENDMOD        ?C?CLDPTR

  -------         MODULE        ?C?CLDOPTR
  C:2A4FH         PUBLIC        ?C?CLDOPTR
  -------         ENDMOD        ?C?CLDOPTR

  -------         MODULE        ?C?CSTPTR
  C:2A7CH         PUBLIC        ?C?CSTPTR
  -------         ENDMOD        ?C?CSTPTR

  -------         MODULE        ?C?CSTOPTR
  C:2A8EH         PUBLIC        ?C?CSTOPTR
  -------         ENDMOD        ?C?CSTOPTR

  -------         MODULE        ?C?IMUL
  C:2AB0H         PUBLIC        ?C?IMUL
  -------         ENDMOD        ?C?IMUL

  -------         MODULE        ?C?UIDIV
  C:2AC2H         PUBLIC        ?C?UIDIV
  -------         ENDMOD        ?C?UIDIV

  -------         MODULE        ?C?SIDIV
  C:2B17H         PUBLIC        ?C?SIDIV
  -------         ENDMOD        ?C?SIDIV

  -------         MODULE        ?C?ILDIX
  C:2B4DH         PUBLIC        ?C?ILDIX
  -------         ENDMOD        ?C?ILDIX

  -------         MODULE        ?C?LMUL
  C:2B63H         PUBLIC        ?C?LMUL
  -------         ENDMOD        ?C?LMUL

  -------         MODULE        ?C?ULDIV
  C:2BEEH         PUBLIC        ?C?ULDIV
BL51 BANKED LINKER/LOCATER V6.22.2.0                                                  03/01/2022  16:31:57  PAGE 75


  -------         ENDMOD        ?C?ULDIV

  -------         MODULE        ?C?SLDIV
  C:72ECH         PUBLIC        ?C?SLDIV
  -------         ENDMOD        ?C?SLDIV

  -------         MODULE        ?C?LNEG
  C:2C80H         PUBLIC        ?C?LNEG
  -------         ENDMOD        ?C?LNEG

  -------         MODULE        ?C?ULCMP
  C:2C8EH         PUBLIC        ?C?ULCMP
  -------         ENDMOD        ?C?ULCMP

  -------         MODULE        ?C?ULSHR
  C:2C9FH         PUBLIC        ?C?ULSHR
  -------         ENDMOD        ?C?ULSHR

  -------         MODULE        ?C?LSHL
  C:2CB2H         PUBLIC        ?C?LSHL
  -------         ENDMOD        ?C?LSHL

  -------         MODULE        ?C?LLDIDATA
  C:2CC5H         PUBLIC        ?C?LLDIDATA
  -------         ENDMOD        ?C?LLDIDATA

  -------         MODULE        ?C?LLDIDATA0
  C:2CD1H         PUBLIC        ?C?LLDIDATA0
  -------         ENDMOD        ?C?LLDIDATA0

  -------         MODULE        ?C?LSTIDATA
  C:2CDEH         PUBLIC        ?C?LSTIDATA
  -------         ENDMOD        ?C?LSTIDATA

  -------         MODULE        ?C?LSTXDATA
  C:2CEAH         PUBLIC        ?C?LSTXDATA
  -------         ENDMOD        ?C?LSTXDATA

  -------         MODULE        ?C?LSTKIDATA
  C:2CF6H         PUBLIC        ?C?LSTKIDATA
  -------         ENDMOD        ?C?LSTKIDATA

  -------         MODULE        ?C?LSTKXDATA
  C:2D0FH         PUBLIC        ?C?LSTKXDATA
  -------         ENDMOD        ?C?LSTKXDATA

  -------         MODULE        ?C?OFFXADD
  C:2D40H         PUBLIC        ?C?OFFXADD
  -------         ENDMOD        ?C?OFFXADD

  -------         MODULE        ?C?CCASE
  C:2D4CH         PUBLIC        ?C?CCASE
  -------         ENDMOD        ?C?CCASE

*** WARNING L16: UNCALLED SEGMENT, IGNORED FOR OVERLAY PROCESS
    SEGMENT: ?PR?INIT_INT0?GPIO

BL51 BANKED LINKER/LOCATER V6.22.2.0                                                  03/01/2022  16:31:57  PAGE 76


Program Size: data=220.7 xdata=1767 code=30886
LINK/LOCATE RUN COMPLETE.  1 WARNING(S),  0 ERROR(S)
