BL51 BANKED LINKER/LOCATER V6.22.2.0                                                    04/20/2022  17:16:51  PAGE 1


BL51 BANKED LINKER/LOCATER V6.22.2.0, INVOKED BY:
C:\KEIL_V5\C51\BIN\BL51.EXE .\Objects\main.obj, .\Objects\sys.obj, .\Objects\gpio.obj, .\Objects\timer.obj, .\Objects\ua
>> rt.obj, .\Objects\IAP_flash.obj, .\Objects\spi.obj, .\Objects\ram.obj, .\Objects\ID_Decode.obj, .\Objects\ML7345.obj,
>>  .\Objects\ML7345_HAL.obj TO .\Objects\CRX1831DCM_MA82G5B32_Pro PRINT (.\Listings\CRX1831DCM_MA82G5B32_Pro.m51) RAMSI
>> ZE (256) CODE (0X0000-0X7FFF) XDATA (0X0000-0X06FF)


MEMORY MODEL: SMALL WITH FLOATING POINT ARITHMETIC


INPUT MODULES INCLUDED:
  .\Objects\main.obj (MAIN)
  .\Objects\sys.obj (SYS)
  .\Objects\gpio.obj (GPIO)
  .\Objects\timer.obj (TIMER)
  .\Objects\uart.obj (UART)
  .\Objects\IAP_flash.obj (IAP_FLASH)
  .\Objects\spi.obj (SPI)
  .\Objects\ram.obj (RAM)
  .\Objects\ID_Decode.obj (ID_DECODE)
  .\Objects\ML7345.obj (ML7345)
  .\Objects\ML7345_HAL.obj (ML7345_HAL)
  C:\KEIL_V5\C51\LIB\C51FPS.LIB (?C?FPADD)
  C:\KEIL_V5\C51\LIB\C51FPS.LIB (?C?FPMUL)
  C:\KEIL_V5\C51\LIB\C51FPS.LIB (?C?FPDIV)
  C:\KEIL_V5\C51\LIB\C51FPS.LIB (?C?FCAST)
  C:\KEIL_V5\C51\LIB\C51FPS.LIB (?C?CASTF)
  C:\KEIL_V5\C51\LIB\C51FPS.LIB (?C?FPGETOPN)
  C:\KEIL_V5\C51\LIB\C51S.LIB (?C_STARTUP)
  C:\KEIL_V5\C51\LIB\C51S.LIB (?C?COPY)
  C:\KEIL_V5\C51\LIB\C51S.LIB (?C?CLDPTR)
  C:\KEIL_V5\C51\LIB\C51S.LIB (?C?CLDOPTR)
  C:\KEIL_V5\C51\LIB\C51S.LIB (?C?CSTPTR)
  C:\KEIL_V5\C51\LIB\C51S.LIB (?C?CSTOPTR)
  C:\KEIL_V5\C51\LIB\C51S.LIB (?C?IMUL)
  C:\KEIL_V5\C51\LIB\C51S.LIB (?C?UIDIV)
  C:\KEIL_V5\C51\LIB\C51S.LIB (?C?SIDIV)
  C:\KEIL_V5\C51\LIB\C51S.LIB (?C?ILDIX)
  C:\KEIL_V5\C51\LIB\C51S.LIB (?C?LMUL)
  C:\KEIL_V5\C51\LIB\C51S.LIB (?C?ULDIV)
  C:\KEIL_V5\C51\LIB\C51S.LIB (?C?SLDIV)
  C:\KEIL_V5\C51\LIB\C51S.LIB (?C?LNEG)
  C:\KEIL_V5\C51\LIB\C51S.LIB (?C?ULCMP)
  C:\KEIL_V5\C51\LIB\C51S.LIB (?C?ULSHR)
  C:\KEIL_V5\C51\LIB\C51S.LIB (?C?LSHL)
  C:\KEIL_V5\C51\LIB\C51S.LIB (?C?LLDIDATA)
  C:\KEIL_V5\C51\LIB\C51S.LIB (?C?LLDIDATA0)
  C:\KEIL_V5\C51\LIB\C51S.LIB (?C?LSTIDATA)
  C:\KEIL_V5\C51\LIB\C51S.LIB (?C?LSTXDATA)
  C:\KEIL_V5\C51\LIB\C51S.LIB (?C?LSTKIDATA)
  C:\KEIL_V5\C51\LIB\C51S.LIB (?C?LSTKXDATA)
  C:\KEIL_V5\C51\LIB\C51S.LIB (?C?OFFXADD)
  C:\KEIL_V5\C51\LIB\C51S.LIB (?C?CCASE)
  C:\KEIL_V5\C51\LIB\C51S.LIB (?C_INIT)


LINK MAP OF MODULE:  .\Objects\CRX1831DCM_MA82G5B32_Pro (MAIN)

BL51 BANKED LINKER/LOCATER V6.22.2.0                                                  04/20/2022  17:16:51  PAGE 2



            TYPE    BASE      LENGTH    RELOCATION   SEGMENT NAME
            -----------------------------------------------------

            * * * * * * *   D A T A   M E M O R Y   * * * * * * *
            REG     0000H     0008H     ABSOLUTE     "REG BANK 0"
            DATA    0008H     0010H     UNIT         ?DT?_TX_DATALOAD_HIGHSPEED?ML7345
            DATA    0018H     0007H     UNIT         ?DT?_IAP_WRITEBUF_WITH_PROTECT_VERIFY?IAP_FLASH
            DATA    001FH     0001H     UNIT         ?DT?_DELAYXUS?TIMER
            BIT     0020H.0   0000H.1   UNIT         ?BI?_UART0SENDBYTE?UART
            BIT     0020H.1   0000H.1   UNIT         ?BI?UART
            BIT     0020H.2   0000H.1   UNIT         ?BI?_IAP_WRITEPPAGE?IAP_FLASH
            BIT     0020H.3   0000H.1   UNIT         ?BI?_IAP_ERASEPAGE?IAP_FLASH
            BIT     0020H.4   0000H.1   UNIT         ?BI?_IAP_WRITEBUF_WITH_PROTECT_VERIFY?IAP_FLASH
            BIT     0020H.5   0000H.1   UNIT         ?BI?_IAP_WRITE_BYTE?IAP_FLASH
            BIT     0020H.6   0000H.1   UNIT         ?BI?RAM
                    0020H.7   0000H.1                *** GAP ***
            DATA    0021H     0007H     UNIT         ?DT?_ML7345_FREQUENCY_CALCUL?ML7345_HAL
            DATA    0028H     0005H     UNIT         ?DT?_ML7345_WRITE_FIFO?SPI
            DATA    002DH     0005H     UNIT         ?DT?_ML7345_READ_FIFO?SPI
            DATA    0032H     0005H     UNIT         ?DT?_RF_ML7345_INIT?ML7345
            DATA    0037H     0004H     UNIT         ?DT?_SEND_DATA?UART
            DATA    003BH     0004H     UNIT         ?DT?_ID_SCX1801_EEPROM_WRITE?IAP_FLASH
            DATA    003FH     0004H     UNIT         ?DT?_DELETE_GENERALID_EEPROM?IAP_FLASH
            DATA    0043H     0004H     UNIT         ?DT?_BEEP_MODULE?ID_DECODE
            DATA    0047H     0004H     UNIT         ?DT?_ML7345_FREQUENCY_SET?ML7345_HAL
            DATA    004BH     0004H     UNIT         ?DT?_ML7345_READRX_PACK?ML7345_HAL
            DATA    004FH     0004H     UNIT         ?DT?_ML7345_AUTOTX_DATA?ML7345_HAL
            DATA    0053H     0003H     UNIT         ?DT?_ASC_HEX_2?UART
            DATA    0056H     0003H     UNIT         ?DT?_IAP_WRITE_BYTE?IAP_FLASH
            DATA    0059H     0003H     UNIT         ?DT?ML7345
            DATA    005CH     0002H     UNIT         ?DT?_IAP_WRITEPPAGE?IAP_FLASH
            DATA    005EH     0002H     UNIT         ?DT?_SPI_DELAY?SPI
            DATA    0060H     0002H     UNIT         ?DT?_ML7345_WRITE_REG?SPI
            DATA    0062H     0001H     UNIT         ?DT?_DELAY_MS?TIMER
            DATA    0063H     0001H     UNIT         ?DT?_UART0SENDBYTE?UART
            DATA    0064H     0001H     UNIT         ?DT?_ASC_HEX?UART
            DATA    0065H     0001H     UNIT         ?DT?_HEX_ASC?UART
            DATA    0066H     0001H     UNIT         ?DT?_RECEIVEFRAME?UART
            DATA    0067H     0001H     UNIT         ?DT?_IAP_ERASEPAGE?IAP_FLASH
            DATA    0068H     0001H     UNIT         ?DT?_SPI1_SENDRECV_DATA?SPI
            DATA    0069H     0001H     UNIT         ?DT?_ML7345_READ_REG?SPI
            DATA    006AH     0001H     UNIT         ?DT?_SIGNAL_DATA_DECODE?ID_DECODE
            DATA    006BH     0001H     UNIT         ?DT?_RETURN_ID_DATA?ID_DECODE
            DATA    006CH     0001H     UNIT         ?DT?_TX_DATA_TEST?ML7345
            DATA    006DH     0001H     UNIT         ?DT?_ML7345_AUTOSTATETRANSITION_SET?ML7345_HAL
            DATA    006EH     0001H     UNIT         ?DT?_ML7345_SETANDGET_STATE?ML7345_HAL
            DATA    006FH     0001H     UNIT         ?DT?_ML7345_STATEFLAG_CLEAR?ML7345_HAL
            IDATA   0070H     0022H     UNIT         ?ID?RAM
            IDATA   0092H     0011H     UNIT         ?ID?ID_EEPROM_WRITE?IAP_FLASH
            IDATA   00A3H     000FH     UNIT         ?ID?_DELETE_GENERALID_EEPROM?IAP_FLASH
            IDATA   00B2H     000EH     UNIT         ?ID?EEPROM_SYS_LOAD?IAP_FLASH
            IDATA   00C0H     0008H     UNIT         ?ID?_RETURN_ID_DATA?ID_DECODE
            IDATA   00C8H     0007H     UNIT         ?ID?_ID_SCX1801_EEPROM_WRITE?IAP_FLASH
            IDATA   00CFH     0003H     UNIT         ?ID?UART
            IDATA   00D2H     0002H     UNIT         ?ID?TIMER
            IDATA   00D4H     0002H     UNIT         ?ID?ALL_ID_EEPROM_ERASE?IAP_FLASH
BL51 BANKED LINKER/LOCATER V6.22.2.0                                                  04/20/2022  17:16:51  PAGE 3


            IDATA   00D6H     0002H     UNIT         ?ID?_BEEP_MODULE?ID_DECODE
            IDATA   00D8H     0002H     UNIT         ?ID?RECEIVER_BEEP?ID_DECODE
            IDATA   00DAH     0001H     UNIT         ?ID?INT_UART0?UART
            IDATA   00DBH     0001H     UNIT         ?ID?OPRATIONFRAME?UART
            IDATA   00DCH     0001H     UNIT         ?ID?ML7345_TRX_DEL?ML7345
            IDATA   00DDH     0001H     UNIT         ?ID?RF_SYNCWORD_DONE?ML7345_HAL
            IDATA   00DEH     0001H     UNIT         ?STACK

            * * * * * * *  X D A T A   M E M O R Y  * * * * * * *
            XDATA   0000H     03B5H     UNIT         ?XD?RAM
            XDATA   03B5H     0209H     UNIT         ?XD?IAP_FLASH
            XDATA   05BEH     0085H     UNIT         ?XD?ML7345
            XDATA   0643H     007BH     UNIT         ?XD?UART
            XDATA   06BEH     001AH     UNIT         ?XD?ID_DECODE
            XDATA   06D8H     000EH     UNIT         ?XD?ML7345_HAL
            XDATA   06E6H     0003H     UNIT         ?XD?SPI

            * * * * * * *   C O D E   M E M O R Y   * * * * * * *
            CODE    0000H     0003H     ABSOLUTE     
            CODE    0003H     0003H     ABSOLUTE     
            CODE    0006H     0005H     UNIT         ?PR?BEEP_OFF?TIMER
            CODE    000BH     0003H     ABSOLUTE     
            CODE    000EH     0004H     UNIT         ?PR?CLEARWDT?SYS
                    0012H     0001H                  *** GAP ***
            CODE    0013H     0003H     ABSOLUTE     
            CODE    0016H     000CH     UNIT         ?PR?INIT_INT1?GPIO
                    0022H     0001H                  *** GAP ***
            CODE    0023H     0003H     ABSOLUTE     
            CODE    0026H     0B28H     UNIT         ?PR?PC_PRG?UART
            CODE    0B4EH     0AD3H     UNIT         ?PR?ID_DECODE_OUT?ID_DECODE
            CODE    1621H     07AAH     UNIT         ?PR?APP_TX_PACKET?ML7345
            CODE    1DCBH     07A5H     UNIT         ?PR?ID_LEARN?IAP_FLASH
            CODE    2570H     078FH     UNIT         ?C?LIB_CODE
            CODE    2CFFH     05E8H     UNIT         ?C_INITSEG
            CODE    32E7H     05BEH     UNIT         ?PR?ID_DECODE_IDCHECK?ID_DECODE
            CODE    38A5H     0564H     UNIT         ?PR?EEPROM_SYS_LOAD?IAP_FLASH
            CODE    3E09H     04CDH     UNIT         ?PR?_TX_DATALOAD_HIGHSPEED?ML7345
            CODE    42D6H     03CFH     UNIT         ?PR?_RF_ML7345_INIT?ML7345
            CODE    46A5H     038FH     UNIT         ?PR?_SIGNAL_DATA_DECODE?ID_DECODE
            CODE    4A34H     032BH     UNIT         ?PR?OPRATIONFRAME?UART
            CODE    4D5FH     0315H     UNIT         ?PR?ML7345D_RF_TEST_MODE?ML7345
            CODE    5074H     0282H     UNIT         ?PR?_ML7345_FREQUENCY_CALCUL?ML7345_HAL
            CODE    52F6H     0274H     UNIT         ?PR?ID_EEPROM_WRITE?IAP_FLASH
            CODE    556AH     026EH     UNIT         ?PR?_DELETE_GENERALID_EEPROM?IAP_FLASH
            CODE    57D8H     022CH     UNIT         ?PR?_IAP_WRITEBUF_WITH_PROTECT_VERIFY?IAP_FLASH
            CODE    5A04H     01F2H     UNIT         ?PR?EEPROM_IDCHECK?ID_DECODE
            CODE    5BF6H     01C6H     UNIT         ?PR?ML7345_TRX_DEL?ML7345
            CODE    5DBCH     0196H     UNIT         ?PR?_ML7345_FREQUENCY_SET?ML7345_HAL
            CODE    5F52H     014AH     UNIT         ?PR?INT_T0?TIMER
            CODE    609CH     0129H     UNIT         ?PR?RX_ANALYSIS?ML7345
            CODE    61C5H     0127H     UNIT         ?PR?ML7345D_CHANGE_CHANNEL?ML7345
            CODE    62ECH     0127H     UNIT         ?PR?ML7345D_FREQ_SCANNING?ML7345
            CODE    6413H     010DH     UNIT         ?PR?SCAN_RECEIVE_PACKET?ML7345
            CODE    6520H     0102H     UNIT         ?PR?MAIN?MAIN
            CODE    6622H     00FEH     UNIT         ?PR?INT_UART0?UART
            CODE    6720H     00FCH     UNIT         ?PR?_RECEIVEFRAME?UART
            CODE    681CH     00EFH     UNIT         ?PR?_ML7345_SETANDGET_STATE?ML7345_HAL
BL51 BANKED LINKER/LOCATER V6.22.2.0                                                  04/20/2022  17:16:51  PAGE 4


            CODE    690BH     00D7H     UNIT         ?PR?_BEEP_MODULE?ID_DECODE
            CODE    69E2H     00C6H     UNIT         ?PR?ID_LOGIN_EXIT_INITIAL?IAP_FLASH
            CODE    6AA8H     00C5H     UNIT         ?PR?ML7345_DATARATE_SET_4_8K?ML7345_HAL
            CODE    6B6DH     00B7H     UNIT         ?PR?ML7345_DATARATE_SET_1_2K?ML7345_HAL
            CODE    6C24H     0097H     UNIT         ?PR?IAP_ERASE_ALL_ID?IAP_FLASH
            CODE    6CBBH     008CH     UNIT         ?C_C51STARTUP
            CODE    6D47H     0081H     UNIT         ?PR?_ML7345_WRITE_FIFO?SPI
            CODE    6DC8H     007FH     UNIT         ?PR?DATARECEIVE?ML7345
            CODE    6E47H     0077H     UNIT         ?PR?UART_RF_BER_TEST?ML7345
            CODE    6EBEH     0074H     UNIT         ?PR?_ID_SCX1801_EEPROM_WRITE?IAP_FLASH
            CODE    6F32H     006AH     UNIT         ?PR?_ML7345_READ_FIFO?SPI
            CODE    6F9CH     0066H     UNIT         ?PR?INIT_PORT?GPIO
            CODE    7002H     0064H     UNIT         ?PR?_RETURN_ID_DATA?ID_DECODE
            CODE    7066H     005CH     UNIT         ?PR?TRANMISSIONACK?UART
            CODE    70C2H     0055H     UNIT         ?PR?TEST_BEEP?ID_DECODE
            CODE    7117H     0051H     UNIT         ?PR?RF_BER_TEST?ML7345
            CODE    7168H     004FH     UNIT         ?PR?_TX_DATA_TEST?ML7345
            CODE    71B7H     004EH     UNIT         ?PR?INT_INT0?GPIO
            CODE    7205H     004EH     UNIT         ?PR?INT_INT1?GPIO
            CODE    7253H     004AH     UNIT         ?PR?RECEIVER_BEEP?ID_DECODE
            CODE    729DH     0046H     UNIT         ?PR?INIT_CLOCK?SYS
            CODE    72E3H     0045H     UNIT         ?PR?INIT_PCA_PWM?TIMER
            CODE    7328H     0044H     UNIT         ?C?LDIV
            CODE    736CH     0042H     UNIT         ?PR?_ML7345_READ_REG?SPI
            CODE    73AEH     0041H     UNIT         ?PR?WAITSTATUS_COMPLETE?ML7345_HAL
            CODE    73EFH     0040H     UNIT         ?PR?ALL_ID_EEPROM_ERASE?IAP_FLASH
            CODE    742FH     0040H     UNIT         ?PR?ML7345_MEASURBER_INIT?ML7345
            CODE    746FH     0040H     UNIT         ?PR?_ML7345_AUTOTX_DATA?ML7345_HAL
            CODE    74AFH     003DH     UNIT         ?PR?_SEND_DATA?UART
            CODE    74ECH     0039H     UNIT         ?PR?_ML7345_WRITE_REG?SPI
            CODE    7525H     0039H     UNIT         ?PR?_ML7345_STATEFLAG_CLEAR?ML7345_HAL
            CODE    755EH     0038H     UNIT         ?PR?_IAP_WRITE_BYTE?IAP_FLASH
            CODE    7596H     0032H     UNIT         ?PR?INIT_UART0_T1?UART
            CODE    75C8H     0032H     UNIT         ?PR?INIT_UART0_T1_ODD?UART
            CODE    75FAH     0032H     UNIT         ?PR?SETREG_RSSI?ML7345_HAL
            CODE    762CH     0030H     UNIT         ?PR?_HEX_ASC?UART
            CODE    765CH     0030H     UNIT         ?PR?_ML7345_READRX_PACK?ML7345_HAL
            CODE    768CH     002FH     UNIT         ?PR?_ML7345_AUTOSTATETRANSITION_SET?ML7345_HAL
            CODE    76BBH     002DH     UNIT         ?PR?_ASC_HEX?UART
            CODE    76E8H     002BH     UNIT         ?PR?_IAP_WRITEPPAGE?IAP_FLASH
            CODE    7713H     0028H     UNIT         ?PR?BEEP_AND_LED?ID_DECODE
            CODE    773BH     0026H     UNIT         ?PR?_IAP_ERASEPAGE?IAP_FLASH
            CODE    7761H     0022H     UNIT         ?PR?INIT_SPI?SPI
            CODE    7783H     0020H     UNIT         ?PR?_DELAY_MS?TIMER
            CODE    77A3H     001FH     UNIT         ?PR?INIT_TIMER0?TIMER
            CODE    77C2H     001EH     UNIT         ?PR?_ASC_HEX_2?UART
            CODE    77E0H     001DH     UNIT         ?PR?ML7345_ALLSTATEFLAG_CLEAR?ML7345_HAL
            CODE    77FDH     001CH     UNIT         ?PR?_UART0SENDBYTE?UART
            CODE    7819H     001BH     UNIT         ?PR?_SPI1_SENDRECV_DATA?SPI
            CODE    7834H     0019H     UNIT         ?PR?RF_SYNCWORD_DONE?ML7345_HAL
            CODE    784DH     0017H     UNIT         ?PR?_DELAYXUS?TIMER
            CODE    7864H     0016H     UNIT         ?PR?ML7345_GPIO0TXDONEINT_ENABLE?ML7345_HAL
            CODE    787AH     0016H     UNIT         ?PR?ML7345_GPIO0RXDONEINT_ENABLE?ML7345_HAL
            CODE    7890H     0014H     UNIT         ?PR?INIT_WDT?SYS
            CODE    78A4H     0014H     UNIT         ?PR?_SPI_DELAY?SPI
            CODE    78B8H     000FH     UNIT         ?CO?IAP_FLASH
            CODE    78C7H     000EH     UNIT         ?CO?UART
BL51 BANKED LINKER/LOCATER V6.22.2.0                                                  04/20/2022  17:16:51  PAGE 5


            CODE    78D5H     000BH     UNIT         ?PR?INIT_IAP_FLASH?IAP_FLASH
            CODE    78E0H     000AH     UNIT         ?PR?INIT_INTERRUPT?GPIO
            CODE    78EAH     000AH     UNIT         ?PR?ML7345_RESETN_SET?ML7345_HAL
            CODE    78F4H     0004H     UNIT         ?PR?INIT_BEEP?TIMER
            CODE    78F8H     0003H     UNIT         ?PR?BEEP_ON?TIMER



OVERLAY MAP OF MODULE:   .\Objects\CRX1831DCM_MA82G5B32_Pro (MAIN)


SEGMENT
  +--> CALLED SEGMENT
---------------------
?PR?INT_INT0?GPIO
  +--> ?PR?ML7345_TRX_DEL?ML7345
  +--> ?PR?DATARECEIVE?ML7345

?PR?ML7345_TRX_DEL?ML7345
  +--> ?PR?RF_SYNCWORD_DONE?ML7345_HAL
  +--> ?PR?_ML7345_SETANDGET_STATE?ML7345_HAL
  +--> ?PR?_RF_ML7345_INIT?ML7345
  +--> ?PR?ML7345_GPIO0RXDONEINT_ENABLE?ML73...
  +--> ?PR?_ML7345_WRITE_REG?SPI
  +--> ?PR?_ML7345_READ_REG?SPI
  +--> ?PR?_ML7345_STATEFLAG_CLEAR?ML7345_HAL

?PR?RF_SYNCWORD_DONE?ML7345_HAL
  +--> ?PR?_ML7345_WRITE_REG?SPI
  +--> ?PR?_ML7345_READ_REG?SPI

?PR?_ML7345_WRITE_REG?SPI
  +--> ?PR?_SPI_DELAY?SPI
  +--> ?PR?_SPI1_SENDRECV_DATA?SPI

?PR?_ML7345_READ_REG?SPI
  +--> ?PR?_SPI_DELAY?SPI
  +--> ?PR?_SPI1_SENDRECV_DATA?SPI

?PR?_ML7345_SETANDGET_STATE?ML7345_HAL
  +--> ?PR?_ML7345_WRITE_REG?SPI
  +--> ?PR?_ML7345_READ_REG?SPI
  +--> ?PR?WAITSTATUS_COMPLETE?ML7345_HAL
  +--> ?PR?_ML7345_FREQUENCY_CALCUL?ML7345_HAL
  +--> ?PR?CLEARWDT?SYS
  +--> ?PR?_RF_ML7345_INIT?ML7345

?PR?WAITSTATUS_COMPLETE?ML7345_HAL
  +--> ?PR?_ML7345_WRITE_REG?SPI
  +--> ?PR?_ML7345_READ_REG?SPI
  +--> ?PR?CLEARWDT?SYS

?PR?_RF_ML7345_INIT?ML7345
  +--> ?PR?ML7345_RESETN_SET?ML7345_HAL
  +--> ?PR?_ML7345_READ_REG?SPI
  +--> ?PR?_ML7345_WRITE_REG?SPI
  +--> ?PR?SETREG_RSSI?ML7345_HAL
BL51 BANKED LINKER/LOCATER V6.22.2.0                                                  04/20/2022  17:16:51  PAGE 6


  +--> ?PR?ML7345_DATARATE_SET_4_8K?ML7345_HAL
  +--> ?PR?ML7345_DATARATE_SET_1_2K?ML7345_HAL
  +--> ?PR?ML7345_ALLSTATEFLAG_CLEAR?ML7345_HAL

?PR?ML7345_RESETN_SET?ML7345_HAL
  +--> ?PR?_DELAY_MS?TIMER

?PR?_DELAY_MS?TIMER
  +--> ?PR?_DELAYXUS?TIMER

?PR?SETREG_RSSI?ML7345_HAL
  +--> ?PR?_ML7345_WRITE_REG?SPI

?PR?ML7345_DATARATE_SET_4_8K?ML7345_HAL
  +--> ?PR?_ML7345_WRITE_REG?SPI

?PR?ML7345_DATARATE_SET_1_2K?ML7345_HAL
  +--> ?PR?_ML7345_WRITE_REG?SPI

?PR?ML7345_ALLSTATEFLAG_CLEAR?ML7345_HAL
  +--> ?PR?_ML7345_WRITE_REG?SPI

?PR?ML7345_GPIO0RXDONEINT_ENABLE?ML73...
  +--> ?PR?_ML7345_WRITE_REG?SPI

?PR?_ML7345_STATEFLAG_CLEAR?ML7345_HAL
  +--> ?PR?_ML7345_WRITE_REG?SPI

*** NEW ROOT ***************************************************

?PR?INT_INT1?GPIO
  +--> ?PR?ML7345_TRX_DEL?ML7345
  +--> ?PR?DATARECEIVE?ML7345

*** NEW ROOT ***************************************************

?PR?INT_UART0?UART
  +--> ?PR?_RECEIVEFRAME?UART

?PR?_RECEIVEFRAME?UART
  +--> ?PR?OPRATIONFRAME?UART

*** NEW ROOT ***************************************************

?C_C51STARTUP
  +--> ?PR?MAIN?MAIN
  +--> ?C_INITSEG

?PR?MAIN?MAIN
  +--> ?PR?INIT_WDT?SYS
  +--> ?PR?INIT_CLOCK?SYS
  +--> ?PR?CLEARWDT?SYS
  +--> ?PR?INIT_IAP_FLASH?IAP_FLASH
  +--> ?PR?EEPROM_SYS_LOAD?IAP_FLASH
  +--> ?PR?INIT_PORT?GPIO
  +--> ?PR?INIT_TIMER0?TIMER
  +--> ?PR?INIT_UART0_T1_ODD?UART
BL51 BANKED LINKER/LOCATER V6.22.2.0                                                  04/20/2022  17:16:51  PAGE 7


  +--> ?PR?INIT_BEEP?TIMER
  +--> ?PR?INIT_SPI?SPI
  +--> ?PR?_RF_ML7345_INIT?ML7345
  +--> ?PR?INIT_INTERRUPT?GPIO
  +--> ?PR?ML7345D_RF_TEST_MODE?ML7345
  +--> ?PR?_ML7345_SETANDGET_STATE?ML7345_HAL
  +--> ?PR?TEST_BEEP?ID_DECODE
  +--> ?PR?ID_DECODE_OUT?ID_DECODE
  +--> ?PR?ID_LEARN?IAP_FLASH
  +--> ?PR?APP_TX_PACKET?ML7345
  +--> ?PR?ML7345D_FREQ_SCANNING?ML7345
  +--> ?PR?SCAN_RECEIVE_PACKET?ML7345
  +--> ?PR?TRANMISSIONACK?UART

?PR?INIT_CLOCK?SYS
  +--> ?PR?_DELAYXUS?TIMER

?PR?INIT_IAP_FLASH?IAP_FLASH
  +--> ?PR?_IAP_WRITEPPAGE?IAP_FLASH

?PR?EEPROM_SYS_LOAD?IAP_FLASH
  +--> ?CO?IAP_FLASH
  +--> ?PR?CLEARWDT?SYS
  +--> ?PR?_ML7345_FREQUENCY_CALCUL?ML7345_HAL

?PR?INIT_BEEP?TIMER
  +--> ?PR?INIT_PCA_PWM?TIMER

?PR?INIT_INTERRUPT?GPIO
  +--> ?PR?INIT_INT1?GPIO

?PR?ML7345D_RF_TEST_MODE?ML7345
  +--> ?PR?INIT_UART0_T1?UART
  +--> ?PR?_BEEP_MODULE?ID_DECODE
  +--> ?PR?CLEARWDT?SYS
  +--> ?PR?_ML7345_SETANDGET_STATE?ML7345_HAL
  +--> ?PR?_ML7345_FREQUENCY_SET?ML7345_HAL
  +--> ?PR?_TX_DATA_TEST?ML7345
  +--> ?PR?ML7345_MEASURBER_INIT?ML7345
  +--> ?PR?RF_BER_TEST?ML7345
  +--> ?PR?PC_PRG?UART
  +--> ?PR?_RF_ML7345_INIT?ML7345
  +--> ?PR?ML7345_GPIO0RXDONEINT_ENABLE?ML73...
  +--> ?PR?ML7345_GPIO0TXDONEINT_ENABLE?ML73...

?PR?_BEEP_MODULE?ID_DECODE
  +--> ?PR?BEEP_ON?TIMER
  +--> ?PR?_DELAYXUS?TIMER
  +--> ?PR?CLEARWDT?SYS
  +--> ?PR?BEEP_OFF?TIMER

?PR?_ML7345_FREQUENCY_SET?ML7345_HAL
  +--> ?PR?_ML7345_SETANDGET_STATE?ML7345_HAL
  +--> ?PR?_ML7345_WRITE_REG?SPI
  +--> ?PR?ML7345_DATARATE_SET_1_2K?ML7345_HAL
  +--> ?PR?ML7345_DATARATE_SET_4_8K?ML7345_HAL
  +--> ?PR?_ML7345_READ_REG?SPI
BL51 BANKED LINKER/LOCATER V6.22.2.0                                                  04/20/2022  17:16:51  PAGE 8



?PR?_TX_DATA_TEST?ML7345
  +--> ?PR?_ML7345_WRITE_REG?SPI
  +--> ?PR?_ML7345_SETANDGET_STATE?ML7345_HAL

?PR?ML7345_MEASURBER_INIT?ML7345
  +--> ?PR?_ML7345_WRITE_REG?SPI

?PR?PC_PRG?UART
  +--> ?CO?UART
  +--> ?PR?_ML7345_SETANDGET_STATE?ML7345_HAL
  +--> ?PR?_SEND_DATA?UART
  +--> ?PR?_ML7345_FREQUENCY_SET?ML7345_HAL
  +--> ?PR?_TX_DATA_TEST?ML7345
  +--> ?PR?ALL_ID_EEPROM_ERASE?IAP_FLASH
  +--> ?PR?_ID_SCX1801_EEPROM_WRITE?IAP_FLASH
  +--> ?PR?_HEX_ASC?UART
  +--> ?PR?_ASC_HEX_2?UART
  +--> ?PR?_IAP_WRITEBUF_WITH_PROTECT_VERIFY...
  +--> ?PR?_ML7345_FREQUENCY_CALCUL?ML7345_HAL
  +--> ?PR?ML7345_MEASURBER_INIT?ML7345
  +--> ?PR?UART_RF_BER_TEST?ML7345

?PR?_SEND_DATA?UART
  +--> ?PR?_UART0SENDBYTE?UART

?PR?ALL_ID_EEPROM_ERASE?IAP_FLASH
  +--> ?PR?CLEARWDT?SYS
  +--> ?PR?IAP_ERASE_ALL_ID?IAP_FLASH

?PR?IAP_ERASE_ALL_ID?IAP_FLASH
  +--> ?CO?IAP_FLASH
  +--> ?PR?_IAP_ERASEPAGE?IAP_FLASH
  +--> ?PR?CLEARWDT?SYS
  +--> ?PR?_IAP_WRITE_BYTE?IAP_FLASH

?PR?_ID_SCX1801_EEPROM_WRITE?IAP_FLASH
  +--> ?CO?IAP_FLASH
  +--> ?PR?_IAP_WRITEBUF_WITH_PROTECT_VERIFY...

?PR?_IAP_WRITEBUF_WITH_PROTECT_VERIFY...
  +--> ?PR?CLEARWDT?SYS

?PR?_ASC_HEX_2?UART
  +--> ?PR?_ASC_HEX?UART

?PR?ML7345_GPIO0TXDONEINT_ENABLE?ML73...
  +--> ?PR?_ML7345_WRITE_REG?SPI

?PR?TEST_BEEP?ID_DECODE
  +--> ?PR?_BEEP_MODULE?ID_DECODE
  +--> ?PR?BEEP_ON?TIMER

?PR?ID_DECODE_OUT?ID_DECODE
  +--> ?PR?_SEND_DATA?UART
  +--> ?PR?RECEIVER_BEEP?ID_DECODE

BL51 BANKED LINKER/LOCATER V6.22.2.0                                                  04/20/2022  17:16:51  PAGE 9


?PR?RECEIVER_BEEP?ID_DECODE
  +--> ?PR?_BEEP_MODULE?ID_DECODE

?PR?ID_LEARN?IAP_FLASH
  +--> ?PR?_BEEP_MODULE?ID_DECODE
  +--> ?PR?ID_LOGIN_EXIT_INITIAL?IAP_FLASH
  +--> ?PR?BEEP_OFF?TIMER
  +--> ?PR?BEEP_ON?TIMER
  +--> ?PR?BEEP_AND_LED?ID_DECODE
  +--> ?PR?_ID_SCX1801_EEPROM_WRITE?IAP_FLASH
  +--> ?PR?_DELETE_GENERALID_EEPROM?IAP_FLASH
  +--> ?PR?ID_EEPROM_WRITE?IAP_FLASH
  +--> ?PR?ALL_ID_EEPROM_ERASE?IAP_FLASH

?PR?ID_LOGIN_EXIT_INITIAL?IAP_FLASH
  +--> ?PR?_BEEP_MODULE?ID_DECODE
  +--> ?PR?BEEP_OFF?TIMER

?PR?BEEP_AND_LED?ID_DECODE
  +--> ?PR?_BEEP_MODULE?ID_DECODE
  +--> ?PR?BEEP_OFF?TIMER

?PR?_DELETE_GENERALID_EEPROM?IAP_FLASH
  +--> ?CO?IAP_FLASH
  +--> ?PR?_RETURN_ID_DATA?ID_DECODE
  +--> ?PR?CLEARWDT?SYS
  +--> ?PR?ALL_ID_EEPROM_ERASE?IAP_FLASH
  +--> ?PR?_IAP_WRITEBUF_WITH_PROTECT_VERIFY...

?PR?ID_EEPROM_WRITE?IAP_FLASH
  +--> ?CO?IAP_FLASH
  +--> ?PR?_IAP_WRITEBUF_WITH_PROTECT_VERIFY...
  +--> ?PR?CLEARWDT?SYS
  +--> ?PR?ID_LOGIN_EXIT_INITIAL?IAP_FLASH

?PR?APP_TX_PACKET?ML7345
  +--> ?PR?_TX_DATALOAD_HIGHSPEED?ML7345
  +--> ?PR?_ML7345_SETANDGET_STATE?ML7345_HAL
  +--> ?PR?_ML7345_WRITE_REG?SPI
  +--> ?PR?ML7345_GPIO0TXDONEINT_ENABLE?ML73...
  +--> ?PR?_ML7345_AUTOTX_DATA?ML7345_HAL
  +--> ?PR?_RF_ML7345_INIT?ML7345

?PR?_TX_DATALOAD_HIGHSPEED?ML7345
  +--> ?PR?CLEARWDT?SYS

?PR?_ML7345_AUTOTX_DATA?ML7345_HAL
  +--> ?PR?_ML7345_WRITE_REG?SPI
  +--> ?PR?_ML7345_AUTOSTATETRANSITION_SET?M...
  +--> ?PR?_ML7345_WRITE_FIFO?SPI

?PR?_ML7345_AUTOSTATETRANSITION_SET?M...
  +--> ?PR?_ML7345_WRITE_REG?SPI

?PR?_ML7345_WRITE_FIFO?SPI
  +--> ?PR?_SPI_DELAY?SPI
  +--> ?PR?_SPI1_SENDRECV_DATA?SPI
BL51 BANKED LINKER/LOCATER V6.22.2.0                                                  04/20/2022  17:16:51  PAGE 10



?PR?ML7345D_FREQ_SCANNING?ML7345
  +--> ?PR?ML7345D_CHANGE_CHANNEL?ML7345
  +--> ?PR?_RF_ML7345_INIT?ML7345
  +--> ?PR?ML7345_GPIO0RXDONEINT_ENABLE?ML73...
  +--> ?PR?_ML7345_SETANDGET_STATE?ML7345_HAL

?PR?ML7345D_CHANGE_CHANNEL?ML7345
  +--> ?PR?_ML7345_FREQUENCY_SET?ML7345_HAL

?PR?SCAN_RECEIVE_PACKET?ML7345
  +--> ?PR?_ML7345_READRX_PACK?ML7345_HAL
  +--> ?PR?_ML7345_STATEFLAG_CLEAR?ML7345_HAL
  +--> ?PR?RX_ANALYSIS?ML7345
  +--> ?PR?_ML7345_SETANDGET_STATE?ML7345_HAL
  +--> ?PR?_ML7345_READ_REG?SPI
  +--> ?PR?_ML7345_WRITE_REG?SPI

?PR?_ML7345_READRX_PACK?ML7345_HAL
  +--> ?PR?_ML7345_WRITE_REG?SPI
  +--> ?PR?_ML7345_READ_FIFO?SPI

?PR?_ML7345_READ_FIFO?SPI
  +--> ?PR?_SPI_DELAY?SPI
  +--> ?PR?_SPI1_SENDRECV_DATA?SPI

?PR?RX_ANALYSIS?ML7345
  +--> ?PR?ID_DECODE_IDCHECK?ID_DECODE

?PR?ID_DECODE_IDCHECK?ID_DECODE
  +--> ?PR?_SIGNAL_DATA_DECODE?ID_DECODE
  +--> ?PR?EEPROM_IDCHECK?ID_DECODE
  +--> ?PR?BEEP_AND_LED?ID_DECODE
  +--> ?PR?ID_EEPROM_WRITE?IAP_FLASH
  +--> ?PR?_ID_SCX1801_EEPROM_WRITE?IAP_FLASH
  +--> ?PR?_RETURN_ID_DATA?ID_DECODE
  +--> ?PR?_DELETE_GENERALID_EEPROM?IAP_FLASH

?PR?EEPROM_IDCHECK?ID_DECODE
  +--> ?PR?_RETURN_ID_DATA?ID_DECODE

?PR?TRANMISSIONACK?UART
  +--> ?PR?_SEND_DATA?UART



SYMBOL TABLE OF MODULE:  .\Objects\CRX1831DCM_MA82G5B32_Pro (MAIN)

  VALUE           TYPE          NAME
  ----------------------------------

  -------         MODULE        MAIN
  C:0000H         SYMBOL        _ICE_DUMMY_
  D:0090H         PUBLIC        P1
  D:00A0H         PUBLIC        P2
  D:00C0H         PUBLIC        XICON
  D:00B0H         PUBLIC        P3
BL51 BANKED LINKER/LOCATER V6.22.2.0                                                  04/20/2022  17:16:51  PAGE 11


  D:00E8H         PUBLIC        P4
  D:00F8H         PUBLIC        P5
  D:00F8H         PUBLIC        P6
  B:00A8H.7       PUBLIC        EA
  D:00A8H         PUBLIC        IE
  D:00B8H         PUBLIC        IP0L
  D:00D8H         PUBLIC        CCON
  C:6520H         PUBLIC        main
  B:00A0H.2       PUBLIC        P22
  B:00A0H.3       PUBLIC        P23
  D:0088H         PUBLIC        TCON
  B:00B0H.5       PUBLIC        P35
  D:0098H         PUBLIC        S0CON
  D:0098H         PUBLIC        S1CON
  D:00C8H         PUBLIC        T2CON
  D:00D0H         PUBLIC        PSW
  -------         PROC          MAIN
  C:6520H         LINE#         22
  C:6520H         LINE#         23
  C:6520H         LINE#         24
  C:6523H         LINE#         25
  C:6526H         LINE#         26
  C:6529H         LINE#         27
  C:652CH         LINE#         28
  C:652FH         LINE#         29
  C:6532H         LINE#         30
  C:6535H         LINE#         31
  C:6538H         LINE#         32
  C:653BH         LINE#         33
  C:653EH         LINE#         34
  C:6541H         LINE#         35
  C:654BH         LINE#         36
  C:6559H         LINE#         37
  C:6563H         LINE#         38
  C:6566H         LINE#         39
  C:6569H         LINE#         40
  C:656BH         LINE#         41
  C:656EH         LINE#         42
  C:657CH         LINE#         43
  C:6581H         LINE#         44
  C:6585H         LINE#         46
  C:6585H         LINE#         47
  C:6585H         LINE#         48
  C:6588H         LINE#         49
  C:6596H         LINE#         51
  C:65A2H         LINE#         52
  C:65A5H         LINE#         53
  C:65A8H         LINE#         54
  C:65C7H         LINE#         55
  C:65DEH         LINE#         56
  C:65DEH         LINE#         57
  C:65E1H         LINE#         58
  C:65E4H         LINE#         59
  C:65E4H         LINE#         60
  C:65E7H         LINE#         61
  C:65FFH         LINE#         62
  C:6603H         LINE#         63
BL51 BANKED LINKER/LOCATER V6.22.2.0                                                  04/20/2022  17:16:51  PAGE 12


  C:661CH         LINE#         64
  C:661EH         LINE#         65
  -------         ENDPROC       MAIN
  -------         ENDMOD        MAIN

  -------         MODULE        SYS
  C:0000H         SYMBOL        _ICE_DUMMY_
  D:0090H         PUBLIC        P1
  D:00A0H         PUBLIC        P2
  D:00E7H         PUBLIC        ISPCR
  D:00C0H         PUBLIC        XICON
  D:00B0H         PUBLIC        P3
  D:00E8H         PUBLIC        P4
  D:00F8H         PUBLIC        P5
  D:00F8H         PUBLIC        P6
  D:00E1H         PUBLIC        WDTCR
  D:00A8H         PUBLIC        IE
  D:00B8H         PUBLIC        IP0L
  D:00C7H         PUBLIC        CKCON0
  D:00D8H         PUBLIC        CCON
  D:00E6H         PUBLIC        SCMD
  D:00E3H         PUBLIC        IFADRH
  D:00E5H         PUBLIC        IFMT
  D:00E4H         PUBLIC        IFADRL
  D:0088H         PUBLIC        TCON
  D:00E2H         PUBLIC        IFD
  C:000EH         PUBLIC        ClearWDT
  D:0097H         PUBLIC        PCON1
  D:0098H         PUBLIC        S0CON
  C:729DH         PUBLIC        Init_Clock
  D:0098H         PUBLIC        S1CON
  C:7890H         PUBLIC        Init_WDT
  D:00C8H         PUBLIC        T2CON
  D:00D0H         PUBLIC        PSW
  -------         PROC          INIT_CLOCK
  C:729DH         LINE#         4
  C:729DH         LINE#         5
  C:729DH         LINE#         7
  C:72A0H         LINE#         8
  C:72A5H         LINE#         9
  C:72C1H         LINE#         10
  C:72C6H         LINE#         11
  C:72E2H         LINE#         21
  -------         ENDPROC       INIT_CLOCK
  -------         PROC          INIT_WDT
  C:7890H         LINE#         24
  C:7890H         LINE#         25
  C:7890H         LINE#         26
  C:7893H         LINE#         27
  C:789DH         LINE#         28
  C:78A0H         LINE#         29
  C:78A3H         LINE#         30
  -------         ENDPROC       INIT_WDT
  -------         PROC          CLEARWDT
  C:000EH         LINE#         32
  C:000EH         LINE#         33
  C:000EH         LINE#         34
BL51 BANKED LINKER/LOCATER V6.22.2.0                                                  04/20/2022  17:16:51  PAGE 13


  C:0011H         LINE#         35
  -------         ENDPROC       CLEARWDT
  -------         ENDMOD        SYS

  -------         MODULE        GPIO
  C:0000H         SYMBOL        _ICE_DUMMY_
  D:0091H         PUBLIC        P1M0
  D:0095H         PUBLIC        P2M0
  D:00B1H         PUBLIC        P3M0
  D:0090H         PUBLIC        P1
  D:00B3H         PUBLIC        P4M0
  D:00B2H         PUBLIC        P3M1
  D:00A0H         PUBLIC        P2
  D:00C0H         PUBLIC        XICON
  D:00B0H         PUBLIC        P3
  D:00E8H         PUBLIC        P4
  D:00F8H         PUBLIC        P5
  D:00F8H         PUBLIC        P6
  D:00A8H         PUBLIC        IE
  C:0016H         PUBLIC        Init_INT1
  D:00B8H         PUBLIC        IP0L
  C:6F9CH         PUBLIC        Init_Port
  D:00D8H         PUBLIC        CCON
  B:0090H.0       PUBLIC        P10
  B:00A0H.0       PUBLIC        P20
  B:0090H.1       PUBLIC        P11
  B:00A0H.1       PUBLIC        P21
  B:0090H.2       PUBLIC        P12
  B:00E8H.0       PUBLIC        P40
  B:0090H.3       PUBLIC        P13
  B:00E8H.1       PUBLIC        P41
  D:0088H         PUBLIC        TCON
  B:00A0H.4       PUBLIC        P24
  D:00B4H         PUBLIC        PUCON0
  B:00B0H.4       PUBLIC        P34
  B:00A0H.5       PUBLIC        P25
  B:0090H.6       PUBLIC        P16
  B:00B0H.5       PUBLIC        P35
  B:00A0H.7       PUBLIC        P27
  B:00A8H.4       PUBLIC        ES0
  B:00A8H.1       PUBLIC        ET0
  C:78E0H         PUBLIC        Init_Interrupt
  B:00A8H.2       PUBLIC        EX1
  B:0088H.2       PUBLIC        IT1
  D:0098H         PUBLIC        S0CON
  D:0098H         PUBLIC        S1CON
  D:00C8H         PUBLIC        T2CON
  C:71B7H         PUBLIC        INT_INT0
  C:7205H         PUBLIC        INT_INT1
  D:00A1H         PUBLIC        AUXR0
  D:00C1H         PUBLIC        XICFG
  D:00D0H         PUBLIC        PSW
  -------         PROC          INIT_PORT
  C:6F9CH         LINE#         10
  C:6F9CH         LINE#         11
  C:6F9CH         LINE#         13
  C:6F9FH         LINE#         14
BL51 BANKED LINKER/LOCATER V6.22.2.0                                                  04/20/2022  17:16:51  PAGE 14


  C:6FA2H         LINE#         15
  C:6FA4H         LINE#         16
  C:6FA7H         LINE#         19
  C:6FAAH         LINE#         20
  C:6FADH         LINE#         21
  C:6FAFH         LINE#         22
  C:6FB2H         LINE#         25
  C:6FB5H         LINE#         26
  C:6FB7H         LINE#         31
  C:6FBAH         LINE#         32
  C:6FBDH         LINE#         33
  C:6FBFH         LINE#         36
  C:6FC2H         LINE#         37
  C:6FC5H         LINE#         38
  C:6FC7H         LINE#         44
  C:6FCDH         LINE#         48
  C:6FD0H         LINE#         49
  C:6FD4H         LINE#         50
  C:6FD7H         LINE#         58
  C:6FE5H         LINE#         59
  C:6FF3H         LINE#         60
  C:6FF5H         LINE#         61
  C:6FF7H         LINE#         62
  C:6FF9H         LINE#         63
  C:6FFBH         LINE#         64
  C:6FFDH         LINE#         65
  C:6FFFH         LINE#         66
  C:7001H         LINE#         67
  -------         ENDPROC       INIT_PORT
  -------         PROC          INIT_INT1
  C:0016H         LINE#         98
  C:0016H         LINE#         99
  C:0016H         LINE#         100
  C:0019H         LINE#         102
  C:001EH         LINE#         103
  C:0021H         LINE#         104
  -------         ENDPROC       INIT_INT1
  -------         PROC          INT_INT0
  C:71B7H         LINE#         116
  C:71D4H         LINE#         118
  C:71E7H         LINE#         119
  C:71EAH         LINE#         120
  -------         ENDPROC       INT_INT0
  -------         PROC          INT_INT1
  C:7205H         LINE#         132
  C:7222H         LINE#         134
  C:7235H         LINE#         135
  C:7238H         LINE#         136
  -------         ENDPROC       INT_INT1
  -------         PROC          INIT_INTERRUPT
  C:78E0H         LINE#         145
  C:78E0H         LINE#         146
  C:78E0H         LINE#         151
  C:78E3H         LINE#         152
  C:78E5H         LINE#         154
  C:78E7H         LINE#         155
  C:78E9H         LINE#         156
BL51 BANKED LINKER/LOCATER V6.22.2.0                                                  04/20/2022  17:16:51  PAGE 15


  -------         ENDPROC       INIT_INTERRUPT
  -------         ENDMOD        GPIO

  -------         MODULE        TIMER
  C:0000H         SYMBOL        _ICE_DUMMY_
  D:00F2H         PUBLIC        PCAPWM6
  D:0090H         PUBLIC        P1
  D:00A0H         PUBLIC        P2
  D:00C0H         PUBLIC        XICON
  D:00B0H         PUBLIC        P3
  D:00E8H         PUBLIC        P4
  D:00F8H         PUBLIC        P5
  D:00F8H         PUBLIC        P6
  D:00ACH         PUBLIC        SFRPI
  D:00F9H         PUBLIC        CH
  D:00BCH         PUBLIC        PWMCR
  D:00A8H         PUBLIC        IE
  D:00E9H         PUBLIC        CL
  B:00D8H.6       PUBLIC        CR
  D:00B8H         PUBLIC        IP0L
  D:00FAH         PUBLIC        CCAP6H
  D:00EAH         PUBLIC        CCAP6L
  C:78F8H         PUBLIC        Beep_On
  D:00DAH         PUBLIC        CCAPM6
  C:72E3H         PUBLIC        Init_PCA_PWM
  D:00D9H         PUBLIC        CMOD
  D:00D8H         PUBLIC        CCON
  D:00CFH         PUBLIC        CHRL
  C:77A3H         PUBLIC        Init_Timer0
  D:00CEH         PUBLIC        CLRL
  B:00A0H.0       PUBLIC        P20
  C:784DH         PUBLIC        _DelayXus
  D:0089H         PUBLIC        TMOD
  D:0088H         PUBLIC        TCON
  D:008CH         PUBLIC        TH0
  C:5F52H         PUBLIC        INT_T0
  D:008AH         PUBLIC        TL0
  C:7783H         PUBLIC        _delay_ms
  B:0088H.4       PUBLIC        TR0
  I:00D2H         PUBLIC        Time_Tx_Out
  D:0098H         PUBLIC        S0CON
  D:0098H         PUBLIC        S1CON
  D:00C8H         PUBLIC        T2CON
  D:00A1H         PUBLIC        AUXR0
  D:00A3H         PUBLIC        AUXR2
  C:78F4H         PUBLIC        Init_Beep
  C:0006H         PUBLIC        Beep_Off
  D:00F2H         PUBLIC        PCAPWM0
  D:00D0H         PUBLIC        PSW
  -------         PROC          INIT_TIMER0
  C:77A3H         LINE#         27
  C:77A3H         LINE#         28
  C:77A3H         LINE#         29
  C:77ADH         LINE#         31
  C:77B6H         LINE#         33
  C:77B9H         LINE#         35
  C:77BCH         LINE#         36
BL51 BANKED LINKER/LOCATER V6.22.2.0                                                  04/20/2022  17:16:51  PAGE 16


  C:77BFH         LINE#         38
  C:77C1H         LINE#         39
  -------         ENDPROC       INIT_TIMER0
  -------         PROC          INT_T0
  C:5F52H         LINE#         49
  C:5F63H         LINE#         51
  C:5F66H         LINE#         52
  C:5F69H         LINE#         54
  C:5F75H         LINE#         55
  C:5F83H         LINE#         56
  C:5F8FH         LINE#         57
  C:5F9DH         LINE#         58
  C:5FA9H         LINE#         59
  C:5FB7H         LINE#         60
  C:5FC2H         LINE#         61
  C:5FCAH         LINE#         62
  C:5FD6H         LINE#         63
  C:5FE4H         LINE#         64
  C:5FEBH         LINE#         65
  C:5FF0H         LINE#         67
  C:5FF0H         LINE#         68
  C:5FF4H         LINE#         69
  C:6002H         LINE#         70
  C:6002H         LINE#         71
  C:600AH         LINE#         72
  C:6010H         LINE#         73
  C:6018H         LINE#         74
  C:601EH         LINE#         75
  C:6026H         LINE#         76
  C:602CH         LINE#         77
  C:6038H         LINE#         78
  C:6046H         LINE#         79
  C:6052H         LINE#         80
  C:6060H         LINE#         82
  C:6073H         LINE#         83
  C:608DH         LINE#         84
  -------         ENDPROC       INT_T0
  -------         PROC          INIT_PCA_PWM
  C:72E3H         LINE#         88
  C:72E3H         LINE#         89
  C:72E3H         LINE#         90
  C:72EDH         LINE#         91
  C:72F6H         LINE#         92
  C:7302H         LINE#         93
  C:7305H         LINE#         96
  C:731BH         LINE#         99
  C:7321H         LINE#         100
  C:7327H         LINE#         101
  -------         ENDPROC       INIT_PCA_PWM
  -------         PROC          INIT_BEEP
  C:78F4H         LINE#         103
  C:78F4H         LINE#         104
  C:78F4H         LINE#         105
  C:78F7H         LINE#         106
  -------         ENDPROC       INIT_BEEP
  -------         PROC          BEEP_ON
  C:78F8H         LINE#         108
BL51 BANKED LINKER/LOCATER V6.22.2.0                                                  04/20/2022  17:16:51  PAGE 17


  C:78F8H         LINE#         109
  C:78F8H         LINE#         110
  C:78FAH         LINE#         111
  -------         ENDPROC       BEEP_ON
  -------         PROC          BEEP_OFF
  C:0006H         LINE#         113
  C:0006H         LINE#         114
  C:0006H         LINE#         115
  C:0008H         LINE#         116
  C:000AH         LINE#         117
  -------         ENDPROC       BEEP_OFF
  -------         PROC          _DELAYXUS
  D:001FH         SYMBOL        xUs
  C:784DH         LINE#         127
  C:784FH         LINE#         128
  C:784FH         LINE#         129
  C:7857H         LINE#         130
  C:7857H         LINE#         131
  C:7858H         LINE#         132
  C:7859H         LINE#         133
  C:785AH         LINE#         134
  C:785BH         LINE#         135
  C:785CH         LINE#         136
  C:785DH         LINE#         137
  C:785EH         LINE#         138
  C:785FH         LINE#         139
  C:7861H         LINE#         140
  C:7863H         LINE#         141
  -------         ENDPROC       _DELAYXUS
  -------         PROC          _DELAY_MS
  D:0062H         SYMBOL        ms
  C:7783H         LINE#         151
  C:7785H         LINE#         152
  C:7785H         LINE#         153
  C:778CH         LINE#         154
  C:778CH         LINE#         155
  C:7791H         LINE#         156
  C:7796H         LINE#         157
  C:779BH         LINE#         158
  C:77A0H         LINE#         159
  C:77A2H         LINE#         160
  -------         ENDPROC       _DELAY_MS
  -------         ENDMOD        TIMER

  -------         MODULE        UART
  C:0000H         SYMBOL        _ICE_DUMMY_
  B:0098H.3       PUBLIC        TB80
  D:0090H         PUBLIC        P1
  D:00A0H         PUBLIC        P2
  B:0098H.6       PUBLIC        SM10
  D:00C0H         PUBLIC        XICON
  D:00B0H         PUBLIC        P3
  D:00E8H         PUBLIC        P4
  D:00F8H         PUBLIC        P5
  X:0659H         PUBLIC        Databits_t
  D:00F8H         PUBLIC        P6
  D:00ACH         PUBLIC        SFRPI
BL51 BANKED LINKER/LOCATER V6.22.2.0                                                  04/20/2022  17:16:51  PAGE 18


  X:065DH         PUBLIC        FLAG_testNo91_step
  D:00A8H         PUBLIC        IE
  X:065EH         PUBLIC        FLAG_testNo91SendUart
  D:00B8H         PUBLIC        IP0L
  B:0098H.4       PUBLIC        REN0
  X:065FH         PUBLIC        UART_DATA_buffer
  X:0688H         PUBLIC        UART_DATA_ID98
  X:06B1H         PUBLIC        U1AckTimer
  D:00D8H         PUBLIC        CCON
  X:06B2H         PUBLIC        UartStatus
  C:7596H         PUBLIC        Init_Uart0_T1
  X:06B3H         PUBLIC        UartCount
  B:00C8H.5       PUBLIC        RCLK
  B:00C8H.4       PUBLIC        TCLK
  B:0090H.0       PUBLIC        P10
  B:0090H.1       PUBLIC        P11
  B:00A0H.1       PUBLIC        P21
  B:0090H.2       PUBLIC        P12
  B:00A0H.2       PUBLIC        P22
  B:00A0H.3       PUBLIC        P23
  D:0089H         PUBLIC        TMOD
  D:0088H         PUBLIC        TCON
  C:6720H         PUBLIC        _ReceiveFrame
  B:00A0H.5       PUBLIC        P25
  B:00B0H.5       PUBLIC        P35
  B:00A0H.7       PUBLIC        P27
  C:6622H         PUBLIC        INT_UART0
  X:06B4H         PUBLIC        UartLen
  C:4A34H         PUBLIC        OprationFrame
  C:78C7H         SYMBOL        _?ix1000
  I:00CFH         PUBLIC        ACKBack
  C:78D1H         SYMBOL        _?ix1001
  X:06B5H         PUBLIC        PROFILE_CH_FREQ_32bit_200002EC_uart
  D:00E0H         PUBLIC        ACC
  B:00A8H.4       PUBLIC        ES0
  B:0098H.0       PUBLIC        RI0
  B:0098H.1       PUBLIC        TI0
  D:008DH         PUBLIC        TH1
  B:00D0H.0       PUBLIC        P
  D:008BH         PUBLIC        TL1
  D:009CH         PUBLIC        S0CFG
  B:0088H.6       PUBLIC        TR1
  X:06B9H         PUBLIC        uart0_rx_len
  X:06BAH         PUBLIC        FLAG_testBEEP
  X:06BBH         PUBLIC        uart0_tx_len
  C:0026H         PUBLIC        PC_PRG
  C:762CH         PUBLIC        _hex_asc
  C:76BBH         PUBLIC        _asc_hex
  D:0099H         PUBLIC        S0BUF
  D:0087H         PUBLIC        PCON0
  C:75C8H         PUBLIC        Init_Uart0_T1_ODD
  D:0098H         PUBLIC        S0CON
  D:0098H         PUBLIC        S1CON
  X:06BCH         PUBLIC        FLAG_testNo91
  D:00C8H         PUBLIC        T2CON
  C:74AFH         PUBLIC        _Send_Data
  B:0098H.7       PUBLIC        SM00_FE
BL51 BANKED LINKER/LOCATER V6.22.2.0                                                  04/20/2022  17:16:51  PAGE 19


  C:7066H         PUBLIC        TranmissionACK
  C:77C2H         PUBLIC        _asc_hex_2
  C:77FDH         PUBLIC        _Uart0SendByte
  B:0020H.1       PUBLIC        rx_done
  D:00A3H         PUBLIC        AUXR2
  X:06BDH         PUBLIC        U1Statues
  D:00D0H         PUBLIC        PSW
  B:0098H.2       PUBLIC        RB80
  -------         PROC          INIT_UART0_T1
  C:7596H         LINE#         52
  C:7596H         LINE#         53
  C:7596H         LINE#         54
  C:759DH         LINE#         55
  C:759FH         LINE#         57
  C:75A6H         LINE#         58
  C:75ACH         LINE#         60
  C:75B6H         LINE#         61
  C:75BCH         LINE#         62
  C:75BFH         LINE#         65
  C:75C2H         LINE#         66
  C:75C5H         LINE#         68
  C:75C7H         LINE#         69
  -------         ENDPROC       INIT_UART0_T1
  -------         PROC          INIT_UART0_T1_ODD
  C:75C8H         LINE#         73
  C:75C8H         LINE#         74
  C:75C8H         LINE#         75
  C:75CFH         LINE#         76
  C:75D1H         LINE#         78
  C:75D8H         LINE#         79
  C:75DEH         LINE#         81
  C:75E8H         LINE#         82
  C:75EEH         LINE#         83
  C:75F1H         LINE#         87
  C:75F4H         LINE#         88
  C:75F7H         LINE#         96
  C:75F9H         LINE#         97
  -------         ENDPROC       INIT_UART0_T1_ODD
  -------         PROC          INT_UART0
  -------         DO            
  I:00DAH         SYMBOL        dat
  -------         ENDDO         
  C:6622H         LINE#         108
  C:663FH         LINE#         110
  C:6643H         LINE#         111
  C:6645H         LINE#         113
  C:6648H         LINE#         114
  C:664BH         LINE#         115
  C:664BH         LINE#         116
  C:664DH         LINE#         117
  C:664DH         LINE#         118
  C:6653H         LINE#         119
  C:6653H         LINE#         120
  C:6655H         LINE#         121
  C:6659H         LINE#         123
  C:6667H         LINE#         124
  C:6667H         LINE#         125
BL51 BANKED LINKER/LOCATER V6.22.2.0                                                  04/20/2022  17:16:51  PAGE 20


  C:666CH         LINE#         126
  C:6678H         LINE#         127
  C:667FH         LINE#         128
  C:6682H         LINE#         130
  C:6682H         LINE#         131
  C:668FH         LINE#         132
  C:66A4H         LINE#         133
  C:66B5H         LINE#         134
  C:66BEH         LINE#         135
  C:66BEH         LINE#         136
  C:66D0H         LINE#         137
  C:66D0H         LINE#         138
  C:66F0H         LINE#         139
  C:66F5H         LINE#         140
  C:6703H         LINE#         142
  C:6703H         LINE#         143
  C:6703H         LINE#         144
  C:6703H         LINE#         145
  C:6705H         LINE#         146
  -------         ENDPROC       INT_UART0
  -------         PROC          _UART0SENDBYTE
  D:0063H         SYMBOL        tByte
  -------         DO            
  B:0020H.0       SYMBOL        bES
  -------         ENDDO         
  C:77FDH         LINE#         154
  C:77FFH         LINE#         155
  C:77FFH         LINE#         157
  C:7803H         LINE#         158
  C:7805H         LINE#         159
  C:7807H         LINE#         160
  C:780CH         LINE#         161
  C:780FH         LINE#         162
  C:7812H         LINE#         163
  C:7814H         LINE#         164
  C:7818H         LINE#         165
  -------         ENDPROC       _UART0SENDBYTE
  -------         PROC          _SEND_DATA
  D:0037H         SYMBOL        buff
  D:003AH         SYMBOL        len
  -------         DO            
  X:0643H         SYMBOL        i
  -------         ENDDO         
  C:74AFH         LINE#         168
  C:74B7H         LINE#         169
  C:74B7H         LINE#         170
  C:74BCH         LINE#         171
  C:74CCH         LINE#         172
  C:74CCH         LINE#         173
  C:74E3H         LINE#         174
  C:74EBH         LINE#         175
  -------         ENDPROC       _SEND_DATA
  -------         PROC          _ASC_HEX
  D:0064H         SYMBOL        asc
  -------         DO            
  X:0644H         SYMBOL        i
  -------         ENDDO         
BL51 BANKED LINKER/LOCATER V6.22.2.0                                                  04/20/2022  17:16:51  PAGE 21


  C:76BBH         LINE#         177
  C:76BDH         LINE#         178
  C:76BDH         LINE#         180
  C:76CCH         LINE#         181
  C:76D8H         LINE#         183
  C:76E2H         LINE#         184
  C:76E7H         LINE#         185
  -------         ENDPROC       _ASC_HEX
  -------         PROC          _HEX_ASC
  D:0065H         SYMBOL        hex
  -------         DO            
  X:0645H         SYMBOL        i
  -------         ENDDO         
  C:762CH         LINE#         187
  C:762EH         LINE#         188
  C:762EH         LINE#         190
  C:7631H         LINE#         191
  C:7640H         LINE#         192
  C:764CH         LINE#         194
  C:7656H         LINE#         195
  C:765BH         LINE#         196
  -------         ENDPROC       _HEX_ASC
  -------         PROC          _ASC_HEX_2
  D:0053H         SYMBOL        asc1
  D:0054H         SYMBOL        asc0
  -------         DO            
  D:0055H         SYMBOL        i
  -------         ENDDO         
  C:77C2H         LINE#         198
  C:77C6H         LINE#         199
  C:77C6H         LINE#         201
  C:77DDH         LINE#         202
  C:77DFH         LINE#         203
  -------         ENDPROC       _ASC_HEX_2
  -------         PROC          _RECEIVEFRAME
  D:0066H         SYMBOL        Cache
  C:6720H         LINE#         206
  C:6722H         LINE#         207
  C:6722H         LINE#         208
  C:6735H         LINE#         209
  C:6735H         LINE#         210
  C:6735H         LINE#         211
  C:6735H         LINE#         212
  C:673FH         LINE#         213
  C:6749H         LINE#         214
  C:674FH         LINE#         215
  C:6769H         LINE#         217
  C:6769H         LINE#         218
  C:676FH         LINE#         219
  C:6775H         LINE#         220
  C:677FH         LINE#         221
  C:6796H         LINE#         222
  C:6796H         LINE#         223
  C:6796H         LINE#         224
  C:6798H         LINE#         225
  C:6798H         LINE#         226
  C:6798H         LINE#         227
BL51 BANKED LINKER/LOCATER V6.22.2.0                                                  04/20/2022  17:16:51  PAGE 22


  C:67AAH         LINE#         228
  C:67B0H         LINE#         229
  C:67C3H         LINE#         230
  C:67C9H         LINE#         231
  C:67C9H         LINE#         232
  C:67CBH         LINE#         233
  C:67CBH         LINE#         234
  C:67D0H         LINE#         235
  C:67D5H         LINE#         236
  C:67D5H         LINE#         237
  C:67D5H         LINE#         238
  C:67E2H         LINE#         239
  C:67E2H         LINE#         241
  C:67E5H         LINE#         242
  C:67EAH         LINE#         243
  C:67EFH         LINE#         245
  C:680FH         LINE#         247
  C:680FH         LINE#         248
  C:6815H         LINE#         249
  C:681BH         LINE#         250
  C:681BH         LINE#         251
  C:681BH         LINE#         252
  -------         ENDPROC       _RECEIVEFRAME
  -------         PROC          OPRATIONFRAME
  -------         DO            
  I:00DBH         SYMBOL        i
  -------         ENDDO         
  C:4A34H         LINE#         254
  C:4A34H         LINE#         255
  C:4A34H         LINE#         256
  C:4A38H         LINE#         257
  C:4A4DH         LINE#         258
  C:4A72H         LINE#         259
  C:4A82H         LINE#         260
  C:4A82H         LINE#         261
  C:4A90H         LINE#         262
  C:4A9CH         LINE#         263
  C:4AAAH         LINE#         267
  C:4AFCH         LINE#         268
  C:4B2EH         LINE#         269
  C:4B3CH         LINE#         270
  C:4B40H         LINE#         271
  C:4B68H         LINE#         272
  C:4B68H         LINE#         273
  C:4B68H         LINE#         274
  C:4B68H         LINE#         275
  C:4B68H         LINE#         276
  C:4B68H         LINE#         277
  C:4B68H         LINE#         278
  C:4B68H         LINE#         279
  C:4B6AH         LINE#         280
  C:4B6AH         LINE#         281
  C:4B6FH         LINE#         283
  C:4B6FH         LINE#         284
  C:4B6FH         LINE#         285
  C:4B92H         LINE#         286
  C:4B92H         LINE#         287
BL51 BANKED LINKER/LOCATER V6.22.2.0                                                  04/20/2022  17:16:51  PAGE 23


  C:4B92H         LINE#         288
  C:4B92H         LINE#         289
  C:4B92H         LINE#         290
  C:4B92H         LINE#         291
  C:4B92H         LINE#         292
  C:4B92H         LINE#         293
  C:4B94H         LINE#         294
  C:4B94H         LINE#         295
  C:4B99H         LINE#         297
  C:4B99H         LINE#         298
  C:4B99H         LINE#         299
  C:4BCAH         LINE#         300
  C:4BCAH         LINE#         301
  C:4BCAH         LINE#         302
  C:4BCAH         LINE#         303
  C:4BCAH         LINE#         304
  C:4BCAH         LINE#         305
  C:4BCAH         LINE#         306
  C:4BCAH         LINE#         307
  C:4BCAH         LINE#         308
  C:4BCAH         LINE#         309
  C:4BCAH         LINE#         310
  C:4BCAH         LINE#         311
  C:4BCAH         LINE#         312
  C:4BCAH         LINE#         313
  C:4BCBH         LINE#         314
  C:4BCBH         LINE#         315
  C:4BD0H         LINE#         317
  C:4BD0H         LINE#         318
  C:4BD0H         LINE#         319
  C:4BD1H         LINE#         320
  C:4BE1H         LINE#         321
  C:4BE1H         LINE#         322
  C:4BE6H         LINE#         323
  C:4BEBH         LINE#         324
  C:4C25H         LINE#         325
  C:4C33H         LINE#         326
  C:4C51H         LINE#         327
  C:4C56H         LINE#         328
  C:4C5BH         LINE#         329
  C:4C61H         LINE#         330
  C:4C62H         LINE#         331
  C:4C6FH         LINE#         332
  C:4C6FH         LINE#         333
  C:4C97H         LINE#         334
  C:4C97H         LINE#         335
  C:4C9BH         LINE#         336
  C:4CA1H         LINE#         337
  C:4CB3H         LINE#         338
  C:4CB9H         LINE#         339
  C:4CBEH         LINE#         340
  C:4CC8H         LINE#         341
  C:4CC9H         LINE#         343
  C:4CC9H         LINE#         344
  C:4CCDH         LINE#         345
  C:4CD3H         LINE#         346
  C:4CDDH         LINE#         347
BL51 BANKED LINKER/LOCATER V6.22.2.0                                                  04/20/2022  17:16:51  PAGE 24


  C:4CE3H         LINE#         348
  C:4CE3H         LINE#         349
  C:4CE4H         LINE#         350
  C:4CF1H         LINE#         351
  C:4CF1H         LINE#         352
  C:4D10H         LINE#         353
  C:4D10H         LINE#         354
  C:4D10H         LINE#         355
  C:4D16H         LINE#         356
  C:4D20H         LINE#         357
  C:4D21H         LINE#         358
  C:4D21H         LINE#         359
  C:4D27H         LINE#         360
  C:4D31H         LINE#         361
  C:4D32H         LINE#         362
  C:4D32H         LINE#         363
  C:4D38H         LINE#         364
  C:4D42H         LINE#         365
  C:4D43H         LINE#         366
  C:4D43H         LINE#         367
  C:4D49H         LINE#         368
  C:4D4AH         LINE#         369
  C:4D4AH         LINE#         370
  C:4D50H         LINE#         371
  C:4D51H         LINE#         372
  C:4D51H         LINE#         373
  C:4D57H         LINE#         374
  C:4D58H         LINE#         375
  C:4D58H         LINE#         376
  C:4D59H         LINE#         377
  C:4D59H         LINE#         379
  C:4D5AH         LINE#         381
  C:4D5AH         LINE#         382
  C:4D5EH         LINE#         384
  C:4D5EH         LINE#         385
  -------         ENDPROC       OPRATIONFRAME
  -------         PROC          TRANMISSIONACK
  C:7066H         LINE#         388
  C:7066H         LINE#         389
  C:7066H         LINE#         390
  C:707EH         LINE#         391
  C:707EH         LINE#         392
  C:7084H         LINE#         393
  C:708FH         LINE#         394
  C:7094H         LINE#         395
  C:7094H         LINE#         397
  C:70ACH         LINE#         398
  C:70ACH         LINE#         399
  C:70B7H         LINE#         400
  C:70BCH         LINE#         401
  C:70C1H         LINE#         402
  C:70C1H         LINE#         403
  -------         ENDPROC       TRANMISSIONACK
  -------         PROC          PC_PRG
  -------         DO            
  X:0646H         SYMBOL        send_dat
  X:0650H         SYMBOL        send_ok
BL51 BANKED LINKER/LOCATER V6.22.2.0                                                  04/20/2022  17:16:51  PAGE 25


  X:0654H         SYMBOL        UART_ID_data
  X:0658H         SYMBOL        re_byte
  -------         ENDDO         
  C:0026H         LINE#         406
  C:0026H         LINE#         407
  C:0026H         LINE#         408
  C:004BH         LINE#         409
  C:0070H         LINE#         411
  C:0075H         LINE#         413
  C:0081H         LINE#         414
  C:0081H         LINE#         415
  C:008FH         LINE#         417
  C:00C4H         LINE#         418
  C:00C4H         LINE#         419
  C:00D0H         LINE#         420
  C:00DCH         LINE#         421
  C:00E8H         LINE#         422
  C:00EAH         LINE#         423
  C:00ECH         LINE#         424
  C:00EEH         LINE#         425
  C:00F0H         LINE#         426
  C:00F2H         LINE#         427
  C:00F4H         LINE#         428
  C:00FCH         LINE#         429
  C:0104H         LINE#         430
  C:0109H         LINE#         431
  C:010EH         LINE#         432
  C:0119H         LINE#         433
  C:0119H         LINE#         434
  C:0133H         LINE#         435
  C:0133H         LINE#         436
  C:0155H         LINE#         437
  C:0155H         LINE#         438
  C:0155H         LINE#         439
  C:0162H         LINE#         440
  C:0162H         LINE#         441
  C:017AH         LINE#         442
  C:0186H         LINE#         443
  C:0192H         LINE#         444
  C:0196H         LINE#         445
  C:019BH         LINE#         446
  C:01A6H         LINE#         447
  C:01ABH         LINE#         448
  C:01B6H         LINE#         449
  C:01B6H         LINE#         450
  C:01B9H         LINE#         451
  C:01B9H         LINE#         452
  C:01D7H         LINE#         453
  C:01D7H         LINE#         454
  C:01E3H         LINE#         455
  C:01EFH         LINE#         456
  C:01FBH         LINE#         457
  C:01FDH         LINE#         458
  C:01FFH         LINE#         459
  C:0201H         LINE#         460
  C:0203H         LINE#         461
  C:0205H         LINE#         462
BL51 BANKED LINKER/LOCATER V6.22.2.0                                                  04/20/2022  17:16:51  PAGE 26


  C:0207H         LINE#         463
  C:020FH         LINE#         464
  C:0217H         LINE#         465
  C:021CH         LINE#         466
  C:0221H         LINE#         467
  C:022CH         LINE#         468
  C:022FH         LINE#         469
  C:0249H         LINE#         470
  C:0249H         LINE#         471
  C:0251H         LINE#         472
  C:0254H         LINE#         473
  C:025EH         LINE#         474
  C:0269H         LINE#         475
  C:0274H         LINE#         476
  C:0274H         LINE#         477
  C:0277H         LINE#         478
  C:0277H         LINE#         479
  C:028BH         LINE#         480
  C:028BH         LINE#         481
  C:02A3H         LINE#         482
  C:02AFH         LINE#         483
  C:02BBH         LINE#         484
  C:02BFH         LINE#         485
  C:02C4H         LINE#         486
  C:02CFH         LINE#         487
  C:02D4H         LINE#         488
  C:02DFH         LINE#         489
  C:02E2H         LINE#         490
  C:0300H         LINE#         491
  C:0300H         LINE#         492
  C:0306H         LINE#         493
  C:030CH         LINE#         494
  C:0312H         LINE#         495
  C:0324H         LINE#         496
  C:0335H         LINE#         497
  C:033BH         LINE#         498
  C:0346H         LINE#         499
  C:0349H         LINE#         500
  C:037AH         LINE#         501
  C:037AH         LINE#         502
  C:0386H         LINE#         503
  C:0398H         LINE#         504
  C:039DH         LINE#         505
  C:03A1H         LINE#         506
  C:03B6H         LINE#         507
  C:03B6H         LINE#         508
  C:03C0H         LINE#         509
  C:03D3H         LINE#         510
  C:03FAH         LINE#         511
  C:0411H         LINE#         512
  C:041CH         LINE#         513
  C:0443H         LINE#         514
  C:045AH         LINE#         515
  C:0465H         LINE#         516
  C:0468H         LINE#         517
  C:0495H         LINE#         518
  C:0495H         LINE#         519
BL51 BANKED LINKER/LOCATER V6.22.2.0                                                  04/20/2022  17:16:51  PAGE 27


  C:049FH         LINE#         520
  C:04B2H         LINE#         521
  C:04B9H         LINE#         522
  C:04E5H         LINE#         523
  C:04FCH         LINE#         524
  C:0507H         LINE#         525
  C:0533H         LINE#         526
  C:054AH         LINE#         527
  C:0555H         LINE#         528
  C:0555H         LINE#         529
  C:055AH         LINE#         530
  C:055AH         LINE#         531
  C:055DH         LINE#         533
  C:055DH         LINE#         534
  C:05A1H         LINE#         535
  C:05A1H         LINE#         536
  C:05A7H         LINE#         537
  C:05ADH         LINE#         538
  C:05B3H         LINE#         539
  C:05B9H         LINE#         540
  C:05BFH         LINE#         541
  C:05D5H         LINE#         542
  C:05E6H         LINE#         543
  C:05ECH         LINE#         544
  C:05F7H         LINE#         545
  C:05FAH         LINE#         546
  C:060EH         LINE#         547
  C:060EH         LINE#         548
  C:0610H         LINE#         549
  C:061CH         LINE#         550
  C:0624H         LINE#         551
  C:062CH         LINE#         552
  C:0631H         LINE#         553
  C:0635H         LINE#         554
  C:063AH         LINE#         555
  C:0644H         LINE#         556
  C:064FH         LINE#         557
  C:0652H         LINE#         558
  C:0657H         LINE#         559
  C:0663H         LINE#         560
  C:066EH         LINE#         561
  C:0671H         LINE#         562
  C:068BH         LINE#         563
  C:068BH         LINE#         564
  C:06B9H         LINE#         565
  C:06C6H         LINE#         566
  C:06CCH         LINE#         567
  C:06D2H         LINE#         568
  C:06D8H         LINE#         569
  C:06EEH         LINE#         570
  C:06FFH         LINE#         571
  C:0705H         LINE#         572
  C:070AH         LINE#         573
  C:0715H         LINE#         574
  C:0718H         LINE#         575
  C:0732H         LINE#         576
  C:0732H         LINE#         577
BL51 BANKED LINKER/LOCATER V6.22.2.0                                                  04/20/2022  17:16:51  PAGE 28


  C:074CH         LINE#         578
  C:074CH         LINE#         579
  C:0751H         LINE#         580
  C:075CH         LINE#         581
  C:0767H         LINE#         582
  C:0772H         LINE#         583
  C:07B6H         LINE#         584
  C:07CAH         LINE#         585
  C:07D0H         LINE#         586
  C:07D6H         LINE#         587
  C:07DCH         LINE#         588
  C:07EEH         LINE#         589
  C:07FFH         LINE#         590
  C:0811H         LINE#         591
  C:0822H         LINE#         592
  C:0834H         LINE#         593
  C:0845H         LINE#         594
  C:084BH         LINE#         595
  C:0856H         LINE#         596
  C:0856H         LINE#         597
  C:0856H         LINE#         598
  C:0859H         LINE#         599
  C:0859H         LINE#         600
  C:0873H         LINE#         601
  C:0873H         LINE#         602
  C:0879H         LINE#         603
  C:087FH         LINE#         604
  C:0885H         LINE#         605
  C:088AH         LINE#         606
  C:089CH         LINE#         607
  C:08B2H         LINE#         608
  C:08C3H         LINE#         609
  C:08C9H         LINE#         610
  C:08D4H         LINE#         611
  C:08D4H         LINE#         612
  C:08D7H         LINE#         613
  C:08D7H         LINE#         614
  C:08F1H         LINE#         615
  C:08F1H         LINE#         616
  C:0913H         LINE#         617
  C:0935H         LINE#         618
  C:0957H         LINE#         619
  C:0979H         LINE#         620
  C:099BH         LINE#         621
  C:09C2H         LINE#         622
  C:09C5H         LINE#         623
  C:09DFH         LINE#         624
  C:09DFH         LINE#         625
  C:0A01H         LINE#         626
  C:0A23H         LINE#         627
  C:0A45H         LINE#         628
  C:0A67H         LINE#         629
  C:0A89H         LINE#         630
  C:0AB0H         LINE#         631
  C:0AB0H         LINE#         632
  C:0AB3H         LINE#         633
  C:0AB3H         LINE#         634
BL51 BANKED LINKER/LOCATER V6.22.2.0                                                  04/20/2022  17:16:51  PAGE 29


  C:0AC7H         LINE#         635
  C:0AC7H         LINE#         636
  C:0ACCH         LINE#         637
  C:0ADEH         LINE#         638
  C:0AF0H         LINE#         639
  C:0B02H         LINE#         640
  C:0B15H         LINE#         642
  C:0B29H         LINE#         643
  C:0B34H         LINE#         644
  C:0B34H         LINE#         645
  C:0B34H         LINE#         646
  C:0B34H         LINE#         647
  C:0B34H         LINE#         648
  C:0B34H         LINE#         649
  C:0B34H         LINE#         650
  C:0B34H         LINE#         651
  C:0B4DH         LINE#         652
  -------         ENDPROC       PC_PRG
  -------         ENDMOD        UART

  -------         MODULE        IAP_FLASH
  C:0000H         SYMBOL        _ICE_DUMMY_
  D:0090H         PUBLIC        P1
  D:00A0H         PUBLIC        P2
  C:1DCBH         PUBLIC        ID_learn
  D:00E7H         PUBLIC        ISPCR
  D:00C0H         PUBLIC        XICON
  D:00B0H         PUBLIC        P3
  D:00E8H         PUBLIC        P4
  D:00F8H         PUBLIC        P5
  D:00F8H         PUBLIC        P6
  B:00A8H.7       PUBLIC        EA
  C:57D8H         PUBLIC        _IAP_WriteBuf_With_Protect_Verify
  D:00A8H         PUBLIC        IE
  D:00B8H         PUBLIC        IP0L
  C:6C24H         PUBLIC        IAP_Erase_All_ID
  C:76E8H         PUBLIC        _IAP_WritePPage
  D:00BFH         PUBLIC        CKCON1
  D:00D8H         PUBLIC        CCON
  D:00E6H         PUBLIC        SCMD
  C:773BH         PUBLIC        _IAP_ErasePage
  D:00E3H         PUBLIC        IFADRH
  D:00E5H         PUBLIC        IFMT
  C:556AH         PUBLIC        _Delete_GeneralID_EEPROM
  B:00A0H.1       PUBLIC        P21
  D:00E4H         PUBLIC        IFADRL
  C:69E2H         PUBLIC        ID_Login_EXIT_Initial
  D:0088H         PUBLIC        TCON
  B:00A0H.5       PUBLIC        P25
  C:755EH         PUBLIC        _IAP_Write_Byte
  C:78B8H         SYMBOL        _?ix1000
  C:78D5H         PUBLIC        Init_IAP_flash
  C:78BBH         SYMBOL        _?ix1001
  C:78BEH         SYMBOL        _?ix1002
  C:78C1H         SYMBOL        _?ix1003
  C:73EFH         PUBLIC        ALL_ID_EEPROM_Erase
  C:78C4H         SYMBOL        _?ix1004
BL51 BANKED LINKER/LOCATER V6.22.2.0                                                  04/20/2022  17:16:51  PAGE 30


  C:52F6H         PUBLIC        ID_EEPROM_write
  C:38A5H         PUBLIC        eeprom_sys_load
  D:00E2H         PUBLIC        IFD
  C:6EBEH         PUBLIC        _ID_SCX1801_EEPROM_write
  D:0098H         PUBLIC        S0CON
  D:0098H         PUBLIC        S1CON
  D:00C8H         PUBLIC        T2CON
  D:00D0H         PUBLIC        PSW
  -------         PROC          INIT_IAP_FLASH
  C:78D5H         LINE#         16
  C:78D5H         LINE#         17
  C:78D5H         LINE#         19
  C:78D8H         LINE#         22
  C:78DFH         LINE#         23
  -------         ENDPROC       INIT_IAP_FLASH
  -------         PROC          _IAP_WRITEPPAGE
  D:005CH         SYMBOL        PsfrAddr
  D:005DH         SYMBOL        PsfrData
  -------         DO            
  B:0020H.2       SYMBOL        bEA
  -------         ENDDO         
  C:76E8H         LINE#         34
  C:76ECH         LINE#         35
  C:76ECH         LINE#         36
  C:76F0H         LINE#         37
  C:76F2H         LINE#         38
  C:76F5H         LINE#         39
  C:76F8H         LINE#         40
  C:76FBH         LINE#         41
  C:76FEH         LINE#         42
  C:7701H         LINE#         44
  C:7704H         LINE#         46
  C:7707H         LINE#         47
  C:7708H         LINE#         48
  C:770BH         LINE#         49
  C:770EH         LINE#         50
  C:7712H         LINE#         51
  -------         ENDPROC       _IAP_WRITEPPAGE
  -------         PROC          _IAP_ERASEPAGE
  D:0067H         SYMBOL        ByteAddr
  -------         DO            
  B:0020H.3       SYMBOL        bEA
  -------         ENDDO         
  C:773BH         LINE#         92
  C:773DH         LINE#         93
  C:773DH         LINE#         94
  C:7741H         LINE#         95
  C:7744H         LINE#         96
  C:7747H         LINE#         97
  C:7749H         LINE#         98
  C:774CH         LINE#         99
  C:774FH         LINE#         101
  C:7752H         LINE#         103
  C:7755H         LINE#         104
  C:7756H         LINE#         105
  C:7759H         LINE#         106
  C:775CH         LINE#         107
BL51 BANKED LINKER/LOCATER V6.22.2.0                                                  04/20/2022  17:16:51  PAGE 31


  C:7760H         LINE#         108
  -------         ENDPROC       _IAP_ERASEPAGE
  -------         PROC          _IAP_WRITEBUF_WITH_PROTECT_VERIFY
  D:0018H         SYMBOL        ByteAddr
  D:001AH         SYMBOL        pBuf
  D:001DH         SYMBOL        Cnt
  -------         DO            
  X:03B5H         SYMBOL        TempBuf
  X:05B5H         SYMBOL        i
  X:05B7H         SYMBOL        ErrCnt
  X:05B8H         SYMBOL        SectorAddr
  B:0020H.4       SYMBOL        bEA
  C:58BEH         SYMBOL        Err_Loop
  C:59FAH         SYMBOL        Err_Return
  -------         ENDDO         
  C:57D8H         LINE#         123
  C:57E2H         LINE#         124
  C:57E2H         LINE#         129
  C:57E6H         LINE#         131
  C:57E8H         LINE#         132
  C:57EDH         LINE#         134
  C:57FCH         LINE#         135
  C:5812H         LINE#         136
  C:5812H         LINE#         137
  C:5819H         LINE#         138
  C:5820H         LINE#         139
  C:5823H         LINE#         140
  C:5826H         LINE#         141
  C:5829H         LINE#         142
  C:582CH         LINE#         143
  C:582FH         LINE#         144
  C:5832H         LINE#         145
  C:5840H         LINE#         146
  C:5855H         LINE#         147
  C:5858H         LINE#         148
  C:5868H         LINE#         150
  C:5877H         LINE#         151
  C:587DH         LINE#         152
  C:587DH         LINE#         153
  C:589BH         LINE#         154
  C:58A6H         LINE#         155
  C:58B4H         LINE#         156
  C:58BCH         LINE#         157
  C:58BEH         LINE#         158
  C:58BEH         LINE#         160
  C:58CDH         LINE#         161
  C:58D4H         LINE#         162
  C:58D7H         LINE#         163
  C:58DAH         LINE#         164
  C:58DDH         LINE#         166
  C:58E0H         LINE#         168
  C:58E3H         LINE#         169
  C:58E4H         LINE#         170
  C:58E7H         LINE#         171
  C:58EAH         LINE#         173
  C:5900H         LINE#         174
  C:5900H         LINE#         175
BL51 BANKED LINKER/LOCATER V6.22.2.0                                                  04/20/2022  17:16:51  PAGE 32


  C:5916H         LINE#         176
  C:591DH         LINE#         177
  C:5924H         LINE#         178
  C:5927H         LINE#         179
  C:592AH         LINE#         181
  C:592DH         LINE#         183
  C:5930H         LINE#         184
  C:5931H         LINE#         185
  C:5934H         LINE#         186
  C:5937H         LINE#         187
  C:5945H         LINE#         188
  C:5948H         LINE#         189
  C:5958H         LINE#         191
  C:5967H         LINE#         192
  C:597DH         LINE#         193
  C:597DH         LINE#         194
  C:5984H         LINE#         195
  C:598BH         LINE#         196
  C:598EH         LINE#         197
  C:5991H         LINE#         199
  C:5994H         LINE#         201
  C:5997H         LINE#         202
  C:599AH         LINE#         203
  C:599DH         LINE#         204
  C:59ABH         LINE#         205
  C:59AEH         LINE#         206
  C:59C7H         LINE#         207
  C:59C7H         LINE#         208
  C:59CDH         LINE#         209
  C:59DFH         LINE#         210
  C:59DFH         LINE#         211
  C:59E2H         LINE#         212
  C:59E2H         LINE#         214
  C:59E2H         LINE#         215
  C:59E4H         LINE#         216
  C:59E4H         LINE#         217
  C:59E4H         LINE#         218
  C:59F5H         LINE#         219
  C:59FAH         LINE#         220
  C:59FAH         LINE#         221
  C:59FEH         LINE#         222
  C:5A03H         LINE#         223
  -------         ENDPROC       _IAP_WRITEBUF_WITH_PROTECT_VERIFY
  -------         PROC          _IAP_WRITE_BYTE
  D:0056H         SYMBOL        Addr
  D:0058H         SYMBOL        wdata
  -------         DO            
  B:0020H.5       SYMBOL        bEA
  -------         ENDDO         
  C:755EH         LINE#         226
  C:7564H         LINE#         227
  C:7564H         LINE#         228
  C:7568H         LINE#         229
  C:756AH         LINE#         230
  C:756DH         LINE#         231
  C:7577H         LINE#         232
  C:757EH         LINE#         233
BL51 BANKED LINKER/LOCATER V6.22.2.0                                                  04/20/2022  17:16:51  PAGE 33


  C:7581H         LINE#         234
  C:7584H         LINE#         235
  C:7587H         LINE#         236
  C:758AH         LINE#         237
  C:758BH         LINE#         238
  C:758EH         LINE#         239
  C:7591H         LINE#         240
  C:7595H         LINE#         241
  -------         ENDPROC       _IAP_WRITE_BYTE
  -------         PROC          IAP_ERASE_ALL_ID
  -------         DO            
  X:05BAH         SYMBOL        read_rf
  X:05BBH         SYMBOL        scx1801_id
  -------         ENDDO         
  C:6C24H         LINE#         244
  C:6C24H         LINE#         245
  C:6C24H         LINE#         246
  C:6C29H         LINE#         247
  C:6C4EH         LINE#         249
  C:6C59H         LINE#         250
  C:6C64H         LINE#         251
  C:6C6FH         LINE#         252
  C:6C7AH         LINE#         254
  C:6C7FH         LINE#         255
  C:6C82H         LINE#         257
  C:6C87H         LINE#         258
  C:6C8AH         LINE#         260
  C:6C96H         LINE#         261
  C:6CA2H         LINE#         262
  C:6CAEH         LINE#         263
  C:6CBAH         LINE#         264
  -------         ENDPROC       IAP_ERASE_ALL_ID
  -------         PROC          EEPROM_SYS_LOAD
  -------         DO            
  I:00B2H         SYMBOL        offset
  I:00B3H         SYMBOL        i
  I:00B5H         SYMBOL        q
  I:00B7H         SYMBOL        p
  I:00B9H         SYMBOL        xm
  I:00BCH         SYMBOL        xn
  -------         ENDDO         
  C:38A5H         LINE#         267
  C:38A5H         LINE#         268
  C:38A5H         LINE#         269
  C:38A9H         LINE#         271
  C:38CEH         LINE#         274
  C:38D8H         LINE#         275
  C:38E2H         LINE#         276
  C:38ECH         LINE#         277
  C:38F0H         LINE#         278
  C:38F8H         LINE#         279
  C:3900H         LINE#         280
  C:3908H         LINE#         281
  C:393AH         LINE#         282
  C:3945H         LINE#         284
  C:394FH         LINE#         285
  C:3959H         LINE#         286
BL51 BANKED LINKER/LOCATER V6.22.2.0                                                  04/20/2022  17:16:51  PAGE 34


  C:3977H         LINE#         287
  C:3987H         LINE#         288
  C:3991H         LINE#         289
  C:39A2H         LINE#         290
  C:39ABH         LINE#         291
  C:39BAH         LINE#         292
  C:39C1H         LINE#         293
  C:39E0H         LINE#         294
  C:39E0H         LINE#         295
  C:3A01H         LINE#         296
  C:3A22H         LINE#         297
  C:3A43H         LINE#         298
  C:3A47H         LINE#         299
  C:3A4FH         LINE#         300
  C:3A57H         LINE#         301
  C:3A5FH         LINE#         302
  C:3A85H         LINE#         303
  C:3A8FH         LINE#         306
  C:3AAFH         LINE#         307
  C:3ACFH         LINE#         308
  C:3AEFH         LINE#         309
  C:3AF7H         LINE#         313
  C:3B07H         LINE#         314
  C:3B07H         LINE#         315
  C:3B0AH         LINE#         316
  C:3B15H         LINE#         318
  C:3B1FH         LINE#         319
  C:3B49H         LINE#         320
  C:3B49H         LINE#         321
  C:3B52H         LINE#         322
  C:3B78H         LINE#         323
  C:3B8FH         LINE#         325
  C:3BB5H         LINE#         326
  C:3BCCH         LINE#         328
  C:3BF2H         LINE#         329
  C:3C09H         LINE#         331
  C:3C2FH         LINE#         332
  C:3C46H         LINE#         334
  C:3C6CH         LINE#         335
  C:3C83H         LINE#         336
  C:3C84H         LINE#         337
  C:3CAFH         LINE#         338
  C:3CAFH         LINE#         339
  C:3CB8H         LINE#         340
  C:3CBEH         LINE#         341
  C:3CE9H         LINE#         342
  C:3D00H         LINE#         344
  C:3D2BH         LINE#         345
  C:3D42H         LINE#         347
  C:3D6DH         LINE#         348
  C:3D84H         LINE#         350
  C:3DAFH         LINE#         351
  C:3DC6H         LINE#         353
  C:3DF1H         LINE#         354
  C:3E08H         LINE#         355
  C:3E08H         LINE#         356
  C:3E08H         LINE#         357
BL51 BANKED LINKER/LOCATER V6.22.2.0                                                  04/20/2022  17:16:51  PAGE 35


  -------         ENDPROC       EEPROM_SYS_LOAD
  -------         PROC          ID_EEPROM_WRITE
  -------         DO            
  I:0092H         SYMBOL        xm
  I:0095H         SYMBOL        i
  I:0097H         SYMBOL        j
  I:0099H         SYMBOL        m1
  I:009BH         SYMBOL        xn
  I:009FH         SYMBOL        xd
  -------         ENDDO         
  C:52F6H         LINE#         359
  C:52F6H         LINE#         360
  C:52F6H         LINE#         361
  C:531BH         LINE#         364
  C:5329H         LINE#         365
  C:5339H         LINE#         366
  C:5347H         LINE#         368
  C:535AH         LINE#         371
  C:539AH         LINE#         372
  C:53DAH         LINE#         373
  C:5415H         LINE#         377
  C:5428H         LINE#         379
  C:543FH         LINE#         380
  C:543FH         LINE#         381
  C:5454H         LINE#         382
  C:546BH         LINE#         383
  C:5473H         LINE#         384
  C:548AH         LINE#         385
  C:5492H         LINE#         386
  C:54A9H         LINE#         387
  C:54ADH         LINE#         388
  C:54B5H         LINE#         389
  C:54BDH         LINE#         390
  C:54C5H         LINE#         391
  C:54EBH         LINE#         392
  C:54EDH         LINE#         393
  C:54F0H         LINE#         394
  C:54FBH         LINE#         396
  C:5503H         LINE#         397
  C:550BH         LINE#         398
  C:5513H         LINE#         399
  C:5529H         LINE#         401
  C:5547H         LINE#         403
  C:5558H         LINE#         404
  C:5558H         LINE#         405
  C:555BH         LINE#         406
  C:5560H         LINE#         407
  C:5569H         LINE#         408
  C:5569H         LINE#         409
  -------         ENDPROC       ID_EEPROM_WRITE
  -------         PROC          ID_LOGIN_EXIT_INITIAL
  C:69E2H         LINE#         411
  C:69E2H         LINE#         412
  C:69E2H         LINE#         414
  C:69F8H         LINE#         415
  C:69F8H         LINE#         416
  C:6A03H         LINE#         417
BL51 BANKED LINKER/LOCATER V6.22.2.0                                                  04/20/2022  17:16:51  PAGE 36


  C:6A0EH         LINE#         418
  C:6A19H         LINE#         419
  C:6A1BH         LINE#         420
  C:6A33H         LINE#         421
  C:6A33H         LINE#         422
  C:6A3EH         LINE#         423
  C:6A49H         LINE#         424
  C:6A49H         LINE#         425
  C:6A4CH         LINE#         426
  C:6A5AH         LINE#         427
  C:6A68H         LINE#         428
  C:6A76H         LINE#         429
  C:6A84H         LINE#         430
  C:6A92H         LINE#         431
  C:6AA0H         LINE#         432
  C:6AA2H         LINE#         433
  C:6AA7H         LINE#         443
  -------         ENDPROC       ID_LOGIN_EXIT_INITIAL
  -------         PROC          _ID_SCX1801_EEPROM_WRITE
  D:003BH         SYMBOL        id
  -------         DO            
  I:00C8H         SYMBOL        xm
  I:00CBH         SYMBOL        xn
  -------         ENDDO         
  C:6EBEH         LINE#         445
  C:6EC6H         LINE#         446
  C:6EC6H         LINE#         447
  C:6EEBH         LINE#         450
  C:6EF8H         LINE#         451
  C:6F06H         LINE#         452
  C:6F0EH         LINE#         453
  C:6F16H         LINE#         454
  C:6F1EH         LINE#         455
  C:6F31H         LINE#         456
  -------         ENDPROC       _ID_SCX1801_EEPROM_WRITE
  -------         PROC          _DELETE_GENERALID_EEPROM
  D:003FH         SYMBOL        id
  -------         DO            
  I:00A3H         SYMBOL        i
  I:00A5H         SYMBOL        j
  I:00A7H         SYMBOL        m2
  I:00A9H         SYMBOL        original_pcs
  I:00ABH         SYMBOL        xm
  I:00AEH         SYMBOL        xn
  -------         ENDDO         
  C:556AH         LINE#         458
  C:5572H         LINE#         459
  C:5572H         LINE#         460
  C:5579H         LINE#         461
  C:559EH         LINE#         464
  C:55ADH         LINE#         465
  C:55CDH         LINE#         466
  C:55CDH         LINE#         468
  C:561AH         LINE#         469
  C:561AH         LINE#         470
  C:5641H         LINE#         471
  C:5641H         LINE#         472
BL51 BANKED LINKER/LOCATER V6.22.2.0                                                  04/20/2022  17:16:51  PAGE 37


  C:5679H         LINE#         473
  C:56B1H         LINE#         474
  C:56E9H         LINE#         475
  C:56ECH         LINE#         476
  C:56F7H         LINE#         477
  C:5705H         LINE#         478
  C:5711H         LINE#         479
  C:5711H         LINE#         480
  C:5715H         LINE#         482
  C:5715H         LINE#         483
  C:5715H         LINE#         500
  C:5718H         LINE#         501
  C:5723H         LINE#         503
  C:5733H         LINE#         504
  C:5741H         LINE#         505
  C:5754H         LINE#         507
  C:5770H         LINE#         508
  C:5770H         LINE#         510
  C:577FH         LINE#         514
  C:5787H         LINE#         515
  C:578FH         LINE#         516
  C:5797H         LINE#         517
  C:57ACH         LINE#         518
  C:57CAH         LINE#         519
  C:57CDH         LINE#         520
  C:57D7H         LINE#         521
  -------         ENDPROC       _DELETE_GENERALID_EEPROM
  -------         PROC          ALL_ID_EEPROM_ERASE
  -------         DO            
  I:00D4H         SYMBOL        i
  -------         ENDDO         
  C:73EFH         LINE#         523
  C:73EFH         LINE#         524
  C:73EFH         LINE#         527
  C:73F7H         LINE#         530
  C:740BH         LINE#         534
  C:740BH         LINE#         535
  C:741EH         LINE#         536
  C:7421H         LINE#         537
  C:742BH         LINE#         538
  C:742EH         LINE#         539
  -------         ENDPROC       ALL_ID_EEPROM_ERASE
  -------         PROC          ID_LEARN
  C:1DCBH         LINE#         541
  C:1DCBH         LINE#         542
  C:1DCBH         LINE#         545
  C:1DD7H         LINE#         546
  C:1DD7H         LINE#         547
  C:1DE5H         LINE#         548
  C:1DF1H         LINE#         549
  C:1E01H         LINE#         550
  C:1E06H         LINE#         551
  C:1E0EH         LINE#         552
  C:1E14H         LINE#         553
  C:1E20H         LINE#         554
  C:1E2EH         LINE#         555
  C:1E36H         LINE#         556
BL51 BANKED LINKER/LOCATER V6.22.2.0                                                  04/20/2022  17:16:51  PAGE 38


  C:1E3CH         LINE#         557
  C:1E48H         LINE#         558
  C:1E56H         LINE#         559
  C:1E62H         LINE#         560
  C:1E70H         LINE#         561
  C:1E7CH         LINE#         562
  C:1E8AH         LINE#         563
  C:1E92H         LINE#         564
  C:1E98H         LINE#         565
  C:1EA4H         LINE#         566
  C:1EB2H         LINE#         567
  C:1EBEH         LINE#         568
  C:1ECCH         LINE#         569
  C:1ED8H         LINE#         570
  C:1EE6H         LINE#         571
  C:1EF2H         LINE#         572
  C:1F00H         LINE#         573
  C:1F0CH         LINE#         574
  C:1F1CH         LINE#         575
  C:1F5DH         LINE#         578
  C:1F5DH         LINE#         579
  C:1F65H         LINE#         580
  C:1F6AH         LINE#         581
  C:1F6AH         LINE#         583
  C:1F70H         LINE#         584
  C:1F70H         LINE#         585
  C:1F8FH         LINE#         586
  C:1F99H         LINE#         587
  C:1FE6H         LINE#         588
  C:1FE6H         LINE#         589
  C:1FF4H         LINE#         590
  C:1FFFH         LINE#         591
  C:200AH         LINE#         592
  C:2010H         LINE#         593
  C:201AH         LINE#         594
  C:2024H         LINE#         595
  C:2026H         LINE#         596
  C:2089H         LINE#         599
  C:2089H         LINE#         600
  C:2095H         LINE#         601
  C:2098H         LINE#         602
  C:2098H         LINE#         603
  C:2098H         LINE#         604
  C:209BH         LINE#         605
  C:209BH         LINE#         606
  C:20ACH         LINE#         607
  C:20ACH         LINE#         608
  C:20BEH         LINE#         609
  C:20C4H         LINE#         610
  C:20C4H         LINE#         611
  C:20D9H         LINE#         612
  C:20D9H         LINE#         613
  C:20E7H         LINE#         614
  C:20ECH         LINE#         615
  C:20ECH         LINE#         616
  C:20F4H         LINE#         617
  C:20F4H         LINE#         618
BL51 BANKED LINKER/LOCATER V6.22.2.0                                                  04/20/2022  17:16:51  PAGE 39


  C:2105H         LINE#         619
  C:2105H         LINE#         620
  C:2113H         LINE#         621
  C:2121H         LINE#         622
  C:2129H         LINE#         623
  C:212CH         LINE#         624
  C:213AH         LINE#         625
  C:2143H         LINE#         626
  C:214DH         LINE#         627
  C:2152H         LINE#         628
  C:215CH         LINE#         629
  C:215FH         LINE#         630
  C:2193H         LINE#         631
  C:2193H         LINE#         633
  C:21A1H         LINE#         634
  C:21AFH         LINE#         635
  C:21BAH         LINE#         636
  C:21C5H         LINE#         637
  C:21D0H         LINE#         638
  C:21D6H         LINE#         639
  C:21E0H         LINE#         640
  C:21EAH         LINE#         641
  C:21EAH         LINE#         642
  C:2207H         LINE#         643
  C:2207H         LINE#         644
  C:221AH         LINE#         645
  C:221AH         LINE#         646
  C:2228H         LINE#         647
  C:2232H         LINE#         648
  C:2235H         LINE#         649
  C:2237H         LINE#         650
  C:224CH         LINE#         651
  C:224CH         LINE#         652
  C:225AH         LINE#         653
  C:2263H         LINE#         654
  C:2266H         LINE#         655
  C:2266H         LINE#         656
  C:2266H         LINE#         657
  C:22A8H         LINE#         658
  C:22A8H         LINE#         659
  C:22B6H         LINE#         660
  C:22C7H         LINE#         661
  C:22C7H         LINE#         662
  C:22CFH         LINE#         663
  C:22E0H         LINE#         664
  C:22E4H         LINE#         666
  C:22E6H         LINE#         667
  C:22E6H         LINE#         668
  C:231AH         LINE#         669
  C:231AH         LINE#         670
  C:235AH         LINE#         671
  C:2368H         LINE#         672
  C:237CH         LINE#         673
  C:237CH         LINE#         674
  C:238AH         LINE#         675
  C:2398H         LINE#         676
  C:23A6H         LINE#         677
BL51 BANKED LINKER/LOCATER V6.22.2.0                                                  04/20/2022  17:16:51  PAGE 40


  C:23B4H         LINE#         678
  C:23B7H         LINE#         679
  C:23C8H         LINE#         680
  C:23E0H         LINE#         681
  C:23E0H         LINE#         682
  C:23EEH         LINE#         683
  C:23FFH         LINE#         684
  C:23FFH         LINE#         685
  C:2402H         LINE#         686
  C:2405H         LINE#         688
  C:2405H         LINE#         689
  C:241DH         LINE#         690
  C:242EH         LINE#         692
  C:242EH         LINE#         693
  C:2431H         LINE#         694
  C:243BH         LINE#         695
  C:246FH         LINE#         696
  C:246FH         LINE#         697
  C:248BH         LINE#         698
  C:249FH         LINE#         699
  C:24A2H         LINE#         700
  C:24A5H         LINE#         701
  C:24BEH         LINE#         702
  C:24BEH         LINE#         703
  C:24D5H         LINE#         704
  C:24D5H         LINE#         705
  C:24E3H         LINE#         706
  C:24EBH         LINE#         707
  C:24EEH         LINE#         708
  C:24F8H         LINE#         709
  C:2503H         LINE#         710
  C:251FH         LINE#         711
  C:2530H         LINE#         712
  C:2532H         LINE#         713
  C:254EH         LINE#         714
  C:2551H         LINE#         715
  C:2551H         LINE#         716
  C:2551H         LINE#         717
  C:2551H         LINE#         718
  C:2551H         LINE#         719
  C:255DH         LINE#         720
  C:256CH         LINE#         722
  C:256FH         LINE#         723
  C:256FH         LINE#         724
  C:256FH         LINE#         726
  -------         ENDPROC       ID_LEARN
  -------         ENDMOD        IAP_FLASH

  -------         MODULE        SPI
  C:0000H         SYMBOL        _ICE_DUMMY_
  D:0090H         PUBLIC        P1
  D:00A0H         PUBLIC        P2
  D:00C0H         PUBLIC        XICON
  D:00B0H         PUBLIC        P3
  D:00E8H         PUBLIC        P4
  D:00F8H         PUBLIC        P5
  D:0085H         PUBLIC        SPCON
BL51 BANKED LINKER/LOCATER V6.22.2.0                                                  04/20/2022  17:16:51  PAGE 41


  D:00F8H         PUBLIC        P6
  D:00A8H         PUBLIC        IE
  D:00B8H         PUBLIC        IP0L
  C:7761H         PUBLIC        Init_Spi
  D:00D8H         PUBLIC        CCON
  C:6F32H         PUBLIC        _ML7345_Read_Fifo
  B:0090H.4       PUBLIC        P14
  D:0088H         PUBLIC        TCON
  C:78A4H         PUBLIC        _spi_delay
  C:6D47H         PUBLIC        _ML7345_Write_Fifo
  C:736CH         PUBLIC        _ML7345_Read_Reg
  C:74ECH         PUBLIC        _ML7345_Write_Reg
  D:0084H         PUBLIC        SPSTAT
  D:0098H         PUBLIC        S0CON
  D:0098H         PUBLIC        S1CON
  D:00C8H         PUBLIC        T2CON
  D:00A2H         PUBLIC        AUXR1
  C:7819H         PUBLIC        _SPI1_SendRecv_Data
  D:00D0H         PUBLIC        PSW
  D:0086H         PUBLIC        SPDAT
  -------         PROC          _SPI_DELAY
  D:005EH         SYMBOL        n
  C:78A4H         LINE#         3
  C:78A8H         LINE#         4
  C:78A8H         LINE#         5
  C:78B7H         LINE#         6
  -------         ENDPROC       _SPI_DELAY
  -------         PROC          INIT_SPI
  C:7761H         LINE#         8
  C:7761H         LINE#         9
  C:7761H         LINE#         11
  C:7764H         LINE#         13
  C:7767H         LINE#         15
  C:7774H         LINE#         17
  C:7777H         LINE#         19
  C:777AH         LINE#         21
  C:777DH         LINE#         23
  C:7780H         LINE#         25
  C:7782H         LINE#         26
  -------         ENDPROC       INIT_SPI
  -------         PROC          _SPI1_SENDRECV_DATA
  D:0068H         SYMBOL        SPI_DATA
  C:7819H         LINE#         35
  C:781BH         LINE#         36
  C:781BH         LINE#         37
  C:7820H         LINE#         38
  C:7823H         LINE#         39
  C:782EH         LINE#         40
  C:7831H         LINE#         41
  C:7833H         LINE#         42
  -------         ENDPROC       _SPI1_SENDRECV_DATA
  -------         PROC          _ML7345_WRITE_REG
  D:0060H         SYMBOL        addr
  D:0061H         SYMBOL        dat
  C:74ECH         LINE#         45
  C:74F0H         LINE#         46
  C:74F0H         LINE#         47
BL51 BANKED LINKER/LOCATER V6.22.2.0                                                  04/20/2022  17:16:51  PAGE 42


  C:74F7H         LINE#         48
  C:74F9H         LINE#         49
  C:7500H         LINE#         51
  C:750AH         LINE#         52
  C:750FH         LINE#         53
  C:7514H         LINE#         55
  C:751BH         LINE#         56
  C:751DH         LINE#         57
  C:7524H         LINE#         58
  -------         ENDPROC       _ML7345_WRITE_REG
  -------         PROC          _ML7345_READ_REG
  D:0069H         SYMBOL        addr
  -------         DO            
  X:06E6H         SYMBOL        read
  -------         ENDDO         
  C:736CH         LINE#         60
  C:736EH         LINE#         61
  C:736EH         LINE#         62
  C:7373H         LINE#         63
  C:737AH         LINE#         64
  C:737CH         LINE#         65
  C:7383H         LINE#         67
  C:7389H         LINE#         68
  C:738EH         LINE#         69
  C:7398H         LINE#         71
  C:739FH         LINE#         72
  C:73A1H         LINE#         73
  C:73A8H         LINE#         75
  C:73ADH         LINE#         76
  -------         ENDPROC       _ML7345_READ_REG
  -------         PROC          _ML7345_WRITE_FIFO
  D:0028H         SYMBOL        addr
  D:0029H         SYMBOL        pbuf
  D:002CH         SYMBOL        len
  -------         DO            
  X:06E7H         SYMBOL        i
  -------         ENDDO         
  C:6D47H         LINE#         78
  C:6D4FH         LINE#         79
  C:6D4FH         LINE#         80
  C:6D54H         LINE#         81
  C:6D5BH         LINE#         82
  C:6D5DH         LINE#         83
  C:6D64H         LINE#         85
  C:6D6EH         LINE#         86
  C:6D73H         LINE#         87
  C:6D80H         LINE#         88
  C:6D91H         LINE#         89
  C:6D91H         LINE#         90
  C:6D98H         LINE#         91
  C:6DAFH         LINE#         92
  C:6DB7H         LINE#         94
  C:6DBEH         LINE#         95
  C:6DC0H         LINE#         96
  C:6DC7H         LINE#         97
  -------         ENDPROC       _ML7345_WRITE_FIFO
  -------         PROC          _ML7345_READ_FIFO
BL51 BANKED LINKER/LOCATER V6.22.2.0                                                  04/20/2022  17:16:51  PAGE 43


  D:002DH         SYMBOL        addr
  D:002EH         SYMBOL        pbuf
  D:0031H         SYMBOL        len
  -------         DO            
  X:06E8H         SYMBOL        i
  -------         ENDDO         
  C:6F32H         LINE#         99
  C:6F3AH         LINE#         100
  C:6F3AH         LINE#         101
  C:6F3FH         LINE#         102
  C:6F46H         LINE#         103
  C:6F48H         LINE#         104
  C:6F4FH         LINE#         106
  C:6F55H         LINE#         107
  C:6F5AH         LINE#         109
  C:6F6AH         LINE#         110
  C:6F6AH         LINE#         111
  C:6F83H         LINE#         112
  C:6F8BH         LINE#         114
  C:6F92H         LINE#         115
  C:6F94H         LINE#         116
  C:6F9BH         LINE#         117
  -------         ENDPROC       _ML7345_READ_FIFO
  -------         ENDMOD        SPI

  -------         MODULE        RAM
  C:0000H         SYMBOL        _ICE_DUMMY_
  X:0000H         PUBLIC        write_flash_buffer
  X:0008H         PUBLIC        TIME_Receiver_Login_restrict
  X:000AH         PUBLIC        Tx_Rx_mode
  X:000BH         PUBLIC        ERROR_Read_sendTX_packet
  X:000CH         PUBLIC        COUNT_Receiver_Login
  X:000DH         PUBLIC        ID_Receiver_Login
  X:0011H         PUBLIC        TIME_auto_out
  X:0013H         PUBLIC        TIMER_Semi_open
  X:0015H         PUBLIC        TIME_Login_EXIT_Button
  X:0017H         PUBLIC        Time_error_read_timeout
  X:0019H         PUBLIC        Manual_override_TIMER
  X:001BH         PUBLIC        Time_APP_RXstart
  X:001CH         PUBLIC        TIME_APP_TX_fromOUT
  X:001EH         PUBLIC        Last_Uart_Struct_DATA_Packet_Contro
  X:0027H         PUBLIC        SIO_cnt
  X:0028H         PUBLIC        TIME_ID_SCX1801_Login
  X:002AH         PUBLIC        FLAG__Semi_close_T
  X:002BH         PUBLIC        Uart_Struct_DATA_Packet_Contro
  X:0034H         PUBLIC        Struct_DATA_Packet_Contro
  I:0070H         PUBLIC        mark0_stu
  I:0071H         PUBLIC        mark1_stu
  X:003DH         PUBLIC        DATA_Packet_Control
  X:003EH         PUBLIC        X_ERR
  X:0040H         PUBLIC        ID_SCX1801_DATA
  X:0044H         PUBLIC        ID_Receiver_DATA
  X:0344H         PUBLIC        TIMER250ms_STOP
  X:0346H         PUBLIC        PROFILE_CH_FREQ_32bit_200002EC
  X:034AH         PUBLIC        X_ERRTimer
  X:034CH         PUBLIC        TIME_Receiver_Login
  X:034EH         PUBLIC        TIMER1s
BL51 BANKED LINKER/LOCATER V6.22.2.0                                                  04/20/2022  17:16:51  PAGE 44


  X:0350H         PUBLIC        time_Login_exit_256
  X:0352H         PUBLIC        DEF_APP_TX_freq
  I:0072H         PUBLIC        Channels
  X:0353H         PUBLIC        ERROR_Read_sendTX_count
  X:0354H         PUBLIC        Flag_ERROR_Read_once_again
  X:0355H         PUBLIC        FLAG__Semi_open_T
  X:0356H         PUBLIC        Time_error_read_gap
  X:0357H         PUBLIC        Struct_DATA_Packet_Contro_buf
  X:0360H         PUBLIC        FLAG_test
  X:0361H         PUBLIC        TIME_Receiver_Login_led
  X:0363H         PUBLIC        Struct_DATA_Packet_Contro_fno
  X:0364H         PUBLIC        RAM_RSSI_AVG
  X:0366H         PUBLIC        X_COUNT
  X:0368H         PUBLIC        DATA_Packet_ID
  X:036CH         PUBLIC        TIME_auto_close
  X:036EH         PUBLIC        TIME_Login_EXIT_rest
  X:0370H         PUBLIC        FLAG0
  X:0371H         PUBLIC        Time_APP_blank_TX
  X:0372H         PUBLIC        FLAG1
  X:0373H         PUBLIC        FLAG2
  I:0073H         PUBLIC        TIMER18ms
  X:0374H         PUBLIC        FLAG3
  X:0375H         PUBLIC        DATA_Packet_Contro_buf
  X:0376H         PUBLIC        ID_DATA_PCS
  I:0075H         PUBLIC        TIME_10ms
  X:0378H         PUBLIC        Send_err_com
  X:037FH         PUBLIC        TIME_power_led
  I:0076H         PUBLIC        CONST_TXPACKET_DATA_20000AF0
  X:0381H         PUBLIC        RAM_RSSI_SUM
  X:0385H         PUBLIC        TIME_Receiver_LED_OUT
  X:0387H         PUBLIC        TIME_TestNo91
  X:0389H         PUBLIC        Time_rf_init
  X:038BH         PUBLIC        RSSI_Read_Counter
  X:038CH         PUBLIC        TIME_ERROR_Read_once_again
  X:038DH         PUBLIC        SIO_DATA
  X:039DH         PUBLIC        X_ERR_CNT
  X:039EH         PUBLIC        retx_cnt
  X:039FH         PUBLIC        TIMER_Semi_close
  X:03A1H         PUBLIC        FLAG_test1
  X:03A2H         PUBLIC        SIO_buff
  X:03B2H         PUBLIC        TIME_OUT_OPEN_CLOSE
  X:03B3H         PUBLIC        TIMER300ms
  B:0020H.6       PUBLIC        Flag_TX_ID_load
  -------         ENDMOD        RAM

  -------         MODULE        ID_DECODE
  C:0000H         SYMBOL        _ICE_DUMMY_
  D:0090H         PUBLIC        P1
  D:00A0H         PUBLIC        P2
  D:00C0H         PUBLIC        XICON
  D:00B0H         PUBLIC        P3
  D:00E8H         PUBLIC        P4
  C:32E7H         PUBLIC        ID_Decode_IDCheck
  D:00F8H         PUBLIC        P5
  C:46A5H         PUBLIC        _Signal_DATA_Decode
  D:00F8H         PUBLIC        P6
  D:00A8H         PUBLIC        IE
BL51 BANKED LINKER/LOCATER V6.22.2.0                                                  04/20/2022  17:16:51  PAGE 45


  C:0B4EH         PUBLIC        ID_Decode_OUT
  D:00B8H         PUBLIC        IP0L
  D:00D8H         PUBLIC        CCON
  B:0090H.0       PUBLIC        P10
  B:0090H.1       PUBLIC        P11
  B:0090H.2       PUBLIC        P12
  D:0088H         PUBLIC        TCON
  B:00A0H.5       PUBLIC        P25
  C:7253H         PUBLIC        Receiver_BEEP
  C:70C2H         PUBLIC        TEST_beep
  D:0098H         PUBLIC        S0CON
  D:0098H         PUBLIC        S1CON
  C:690BH         PUBLIC        _BEEP_Module
  D:00C8H         PUBLIC        T2CON
  C:7713H         PUBLIC        BEEP_and_LED
  C:7002H         PUBLIC        _Return_ID_DATA
  D:00D0H         PUBLIC        PSW
  C:5A04H         PUBLIC        eeprom_IDcheck
  -------         PROC          ID_DECODE_IDCHECK
  C:32E7H         LINE#         19
  C:32E7H         LINE#         20
  C:32E7H         LINE#         22
  C:32F3H         LINE#         23
  C:32F3H         LINE#         24
  C:3301H         LINE#         25
  C:3315H         LINE#         26
  C:3327H         LINE#         27
  C:333FH         LINE#         28
  C:333FH         LINE#         29
  C:3349H         LINE#         30
  C:334CH         LINE#         31
  C:338EH         LINE#         32
  C:338EH         LINE#         33
  C:33E7H         LINE#         34
  C:33E7H         LINE#         35
  C:3448H         LINE#         36
  C:3448H         LINE#         37
  C:3456H         LINE#         38
  C:346AH         LINE#         39
  C:346AH         LINE#         40
  C:346AH         LINE#         41
  C:346BH         LINE#         42
  C:34A2H         LINE#         43
  C:34A2H         LINE#         44
  C:34B0H         LINE#         45
  C:34C0H         LINE#         46
  C:34C0H         LINE#         47
  C:34DCH         LINE#         48
  C:34E6H         LINE#         50
  C:3515H         LINE#         51
  C:3515H         LINE#         52
  C:3517H         LINE#         53
  C:351CH         LINE#         54
  C:3534H         LINE#         55
  C:3534H         LINE#         56
  C:3537H         LINE#         57
  C:3544H         LINE#         58
BL51 BANKED LINKER/LOCATER V6.22.2.0                                                  04/20/2022  17:16:51  PAGE 46


  C:3544H         LINE#         59
  C:355CH         LINE#         60
  C:356BH         LINE#         61
  C:357FH         LINE#         62
  C:357FH         LINE#         63
  C:3582H         LINE#         64
  C:3596H         LINE#         65
  C:3599H         LINE#         66
  C:3599H         LINE#         67
  C:359AH         LINE#         68
  C:35A8H         LINE#         69
  C:35A8H         LINE#         70
  C:35C3H         LINE#         71
  C:35C3H         LINE#         72
  C:35D1H         LINE#         73
  C:35D4H         LINE#         74
  C:35F6H         LINE#         75
  C:35F6H         LINE#         76
  C:3600H         LINE#         77
  C:360BH         LINE#         79
  C:3621H         LINE#         80
  C:3621H         LINE#         81
  C:362CH         LINE#         82
  C:363DH         LINE#         83
  C:364EH         LINE#         84
  C:364EH         LINE#         93
  C:364FH         LINE#         95
  C:364FH         LINE#         96
  C:3660H         LINE#         97
  C:3660H         LINE#         98
  C:3660H         LINE#         99
  C:3660H         LINE#         100
  C:3660H         LINE#         101
  C:3661H         LINE#         103
  C:3661H         LINE#         104
  C:3663H         LINE#         105
  C:367CH         LINE#         106
  C:367CH         LINE#         107
  C:368AH         LINE#         108
  C:3694H         LINE#         109
  C:36AEH         LINE#         110
  C:36AEH         LINE#         111
  C:36BCH         LINE#         112
  C:36C6H         LINE#         113
  C:36C6H         LINE#         114
  C:36C9H         LINE#         115
  C:36D9H         LINE#         118
  C:36D9H         LINE#         119
  C:36E7H         LINE#         120
  C:36EFH         LINE#         121
  C:36FDH         LINE#         122
  C:3714H         LINE#         123
  C:371EH         LINE#         124
  C:372FH         LINE#         125
  C:372FH         LINE#         126
  C:373BH         LINE#         127
  C:3745H         LINE#         128
BL51 BANKED LINKER/LOCATER V6.22.2.0                                                  04/20/2022  17:16:51  PAGE 47


  C:3747H         LINE#         129
  C:3760H         LINE#         130
  C:376AH         LINE#         131
  C:376AH         LINE#         132
  C:3774H         LINE#         134
  C:3782H         LINE#         135
  C:3782H         LINE#         136
  C:3783H         LINE#         137
  C:3793H         LINE#         138
  C:3793H         LINE#         139
  C:3798H         LINE#         140
  C:37ACH         LINE#         141
  C:37C7H         LINE#         142
  C:37F6H         LINE#         143
  C:381BH         LINE#         144
  C:3825H         LINE#         145
  C:3858H         LINE#         146
  C:3873H         LINE#         147
  C:3875H         LINE#         148
  C:387FH         LINE#         149
  C:388DH         LINE#         150
  C:3896H         LINE#         151
  C:38A4H         LINE#         152
  C:38A4H         LINE#         153
  C:38A4H         LINE#         156
  C:38A4H         LINE#         157
  C:38A4H         LINE#         158
  -------         ENDPROC       ID_DECODE_IDCHECK
  -------         PROC          _SIGNAL_DATA_DECODE
  D:006AH         SYMBOL        NUM_Type
  -------         DO            
  X:06BEH         SYMBOL        data_in
  X:06C2H         SYMBOL        data_out
  X:06C4H         SYMBOL        data_NRZ
  X:06D2H         SYMBOL        i
  X:06D3H         SYMBOL        j
  X:06D4H         SYMBOL        i_value
  -------         ENDDO         
  C:46A5H         LINE#         160
  C:46A7H         LINE#         161
  C:46A7H         LINE#         167
  C:46C1H         LINE#         168
  C:46D1H         LINE#         169
  C:46E8H         LINE#         170
  C:46E8H         LINE#         171
  C:46FAH         LINE#         172
  C:4720H         LINE#         174
  C:4744H         LINE#         175
  C:474CH         LINE#         176
  C:4765H         LINE#         177
  C:477CH         LINE#         178
  C:477CH         LINE#         179
  C:4793H         LINE#         180
  C:47B7H         LINE#         181
  C:47C5H         LINE#         182
  C:47DEH         LINE#         183
  C:47E6H         LINE#         184
BL51 BANKED LINKER/LOCATER V6.22.2.0                                                  04/20/2022  17:16:51  PAGE 48


  C:4804H         LINE#         185
  C:480DH         LINE#         186
  C:4822H         LINE#         187
  C:4822H         LINE#         188
  C:484BH         LINE#         189
  C:484BH         LINE#         190
  C:4859H         LINE#         191
  C:4896H         LINE#         192
  C:48B2H         LINE#         193
  C:48C0H         LINE#         194
  C:48D3H         LINE#         195
  C:48D4H         LINE#         197
  C:48E2H         LINE#         198
  C:48E3H         LINE#         199
  C:48F0H         LINE#         200
  C:48F0H         LINE#         201
  C:4951H         LINE#         202
  C:4951H         LINE#         203
  C:495FH         LINE#         204
  C:499CH         LINE#         205
  C:49B8H         LINE#         206
  C:49C6H         LINE#         207
  C:49D9H         LINE#         208
  C:49F0H         LINE#         209
  C:4A24H         LINE#         210
  C:4A25H         LINE#         212
  C:4A33H         LINE#         213
  C:4A33H         LINE#         214
  -------         ENDPROC       _SIGNAL_DATA_DECODE
  -------         PROC          EEPROM_IDCHECK
  -------         DO            
  X:06D5H         SYMBOL        i
  -------         ENDDO         
  C:5A04H         LINE#         216
  C:5A04H         LINE#         217
  C:5A04H         LINE#         219
  C:5A11H         LINE#         220
  C:5A11H         LINE#         221
  C:5A1FH         LINE#         222
  C:5A29H         LINE#         223
  C:5A29H         LINE#         225
  C:5A39H         LINE#         226
  C:5A39H         LINE#         227
  C:5A41H         LINE#         229
  C:5A41H         LINE#         231
  C:5A60H         LINE#         235
  C:5A60H         LINE#         236
  C:5A70H         LINE#         237
  C:5A7EH         LINE#         238
  C:5A97H         LINE#         239
  C:5AC9H         LINE#         240
  C:5ACBH         LINE#         241
  C:5AEDH         LINE#         242
  C:5AEDH         LINE#         243
  C:5AFDH         LINE#         244
  C:5B0BH         LINE#         245
  C:5B15H         LINE#         246
BL51 BANKED LINKER/LOCATER V6.22.2.0                                                  04/20/2022  17:16:51  PAGE 49


  C:5B15H         LINE#         247
  C:5B42H         LINE#         248
  C:5B42H         LINE#         249
  C:5B52H         LINE#         250
  C:5B60H         LINE#         251
  C:5B6AH         LINE#         252
  C:5B6AH         LINE#         253
  C:5B78H         LINE#         254
  C:5B92H         LINE#         255
  C:5B93H         LINE#         256
  C:5BC2H         LINE#         257
  C:5BC2H         LINE#         258
  C:5BD0H         LINE#         259
  C:5BF5H         LINE#         260
  C:5BF5H         LINE#         286
  -------         ENDPROC       EEPROM_IDCHECK
  -------         PROC          _BEEP_MODULE
  D:0043H         SYMBOL        time_beepON
  D:0045H         SYMBOL        time_beepOFF
  -------         DO            
  I:00D6H         SYMBOL        i
  -------         ENDDO         
  C:690BH         LINE#         288
  C:6913H         LINE#         289
  C:6913H         LINE#         292
  C:692AH         LINE#         293
  C:692AH         LINE#         294
  C:6940H         LINE#         295
  C:6940H         LINE#         296
  C:694EH         LINE#         297
  C:695CH         LINE#         298
  C:695FH         LINE#         299
  C:695FH         LINE#         300
  C:6964H         LINE#         301
  C:6969H         LINE#         302
  C:696EH         LINE#         303
  C:6971H         LINE#         304
  C:697BH         LINE#         305
  C:6992H         LINE#         306
  C:6992H         LINE#         307
  C:69A6H         LINE#         308
  C:69A6H         LINE#         309
  C:69B4H         LINE#         310
  C:69C2H         LINE#         311
  C:69C5H         LINE#         312
  C:69C5H         LINE#         313
  C:69CAH         LINE#         314
  C:69CFH         LINE#         315
  C:69D4H         LINE#         316
  C:69D7H         LINE#         317
  C:69E1H         LINE#         319
  -------         ENDPROC       _BEEP_MODULE
  -------         PROC          BEEP_AND_LED
  C:7713H         LINE#         321
  C:7713H         LINE#         322
  C:7713H         LINE#         323
  C:7715H         LINE#         324
BL51 BANKED LINKER/LOCATER V6.22.2.0                                                  04/20/2022  17:16:51  PAGE 50


  C:7720H         LINE#         325
  C:772EH         LINE#         326
  C:7731H         LINE#         327
  C:773AH         LINE#         328
  -------         ENDPROC       BEEP_AND_LED
  -------         PROC          RECEIVER_BEEP
  -------         DO            
  I:00D8H         SYMBOL        j
  -------         ENDDO         
  C:7253H         LINE#         330
  C:7253H         LINE#         331
  C:7253H         LINE#         333
  C:7262H         LINE#         334
  C:7262H         LINE#         335
  C:7270H         LINE#         336
  C:7287H         LINE#         337
  C:729CH         LINE#         338
  C:729CH         LINE#         339
  -------         ENDPROC       RECEIVER_BEEP
  -------         PROC          TEST_BEEP
  C:70C2H         LINE#         341
  C:70C2H         LINE#         342
  C:70C2H         LINE#         343
  C:70CFH         LINE#         344
  C:70DCH         LINE#         345
  C:70E9H         LINE#         346
  C:70E9H         LINE#         347
  C:70F4H         LINE#         348
  C:70FFH         LINE#         349
  C:7101H         LINE#         350
  C:7111H         LINE#         351
  C:7116H         LINE#         352
  -------         ENDPROC       TEST_BEEP
  -------         PROC          ID_DECODE_OUT
  -------         DO            
  X:06D7H         SYMBOL        Control_i
  -------         ENDDO         
  C:0B4EH         LINE#         354
  C:0B4EH         LINE#         355
  C:0B4EH         LINE#         358
  C:0B5CH         LINE#         359
  C:0B6BH         LINE#         360
  C:0B6BH         LINE#         361
  C:0B88H         LINE#         362
  C:0B88H         LINE#         363
  C:0BA6H         LINE#         364
  C:0BA6H         LINE#         365
  C:0BBCH         LINE#         366
  C:0BBCH         LINE#         367
  C:0BBCH         LINE#         370
  C:0BBEH         LINE#         371
  C:0BC2H         LINE#         372
  C:0BCDH         LINE#         373
  C:0BD3H         LINE#         375
  C:0BD6H         LINE#         376
  C:0BD6H         LINE#         379
  C:0BD8H         LINE#         380
BL51 BANKED LINKER/LOCATER V6.22.2.0                                                  04/20/2022  17:16:51  PAGE 51


  C:0BDCH         LINE#         381
  C:0BE7H         LINE#         382
  C:0BEDH         LINE#         384
  C:0BF0H         LINE#         385
  C:0BF0H         LINE#         388
  C:0BF2H         LINE#         389
  C:0BF6H         LINE#         390
  C:0C01H         LINE#         391
  C:0C07H         LINE#         393
  C:0C0AH         LINE#         394
  C:0C0AH         LINE#         395
  C:0C0DH         LINE#         396
  C:0C0DH         LINE#         398
  C:0C0DH         LINE#         399
  C:0C10H         LINE#         401
  C:0C10H         LINE#         402
  C:0C3EH         LINE#         403
  C:0C3EH         LINE#         404
  C:0C3EH         LINE#         405
  C:0C40H         LINE#         406
  C:0C49H         LINE#         408
  C:0C58H         LINE#         409
  C:0C6CH         LINE#         410
  C:0C6CH         LINE#         411
  C:0C7BH         LINE#         412
  C:0C8AH         LINE#         413
  C:0C8DH         LINE#         414
  C:0C8DH         LINE#         415
  C:0C90H         LINE#         416
  C:0C90H         LINE#         417
  C:0CC5H         LINE#         418
  C:0CC5H         LINE#         419
  C:0CC7H         LINE#         420
  C:0CCFH         LINE#         422
  C:0CDFH         LINE#         423
  C:0CF0H         LINE#         424
  C:0CF0H         LINE#         425
  C:0CFFH         LINE#         426
  C:0D0FH         LINE#         427
  C:0D12H         LINE#         428
  C:0D23H         LINE#         429
  C:0D23H         LINE#         430
  C:0D33H         LINE#         431
  C:0D43H         LINE#         432
  C:0D46H         LINE#         434
  C:0D46H         LINE#         435
  C:0D54H         LINE#         436
  C:0D64H         LINE#         437
  C:0D73H         LINE#         438
  C:0D73H         LINE#         439
  C:0D73H         LINE#         440
  C:0D76H         LINE#         441
  C:0D76H         LINE#         442
  C:0D78H         LINE#         443
  C:0D83H         LINE#         444
  C:0D83H         LINE#         445
  C:0D93H         LINE#         447
BL51 BANKED LINKER/LOCATER V6.22.2.0                                                  04/20/2022  17:16:51  PAGE 52


  C:0DA2H         LINE#         448
  C:0DB1H         LINE#         449
  C:0DB4H         LINE#         451
  C:0DB4H         LINE#         452
  C:0DC4H         LINE#         453
  C:0DD4H         LINE#         454
  C:0DE4H         LINE#         456
  C:0DE4H         LINE#         457
  C:0DE7H         LINE#         458
  C:0DE7H         LINE#         459
  C:0DE9H         LINE#         460
  C:0DF9H         LINE#         461
  C:0E09H         LINE#         463
  C:0E18H         LINE#         464
  C:0E1BH         LINE#         465
  C:0E1BH         LINE#         466
  C:0E1DH         LINE#         467
  C:0E2DH         LINE#         468
  C:0E3DH         LINE#         470
  C:0E4CH         LINE#         471
  C:0E4FH         LINE#         472
  C:0E4FH         LINE#         473
  C:0E51H         LINE#         474
  C:0E61H         LINE#         475
  C:0E71H         LINE#         477
  C:0E80H         LINE#         478
  C:0E83H         LINE#         479
  C:0E83H         LINE#         480
  C:0E85H         LINE#         481
  C:0E8EH         LINE#         482
  C:0E9EH         LINE#         484
  C:0EADH         LINE#         485
  C:0EC2H         LINE#         486
  C:0EC2H         LINE#         487
  C:0ED0H         LINE#         488
  C:0ED6H         LINE#         489
  C:0ED6H         LINE#         490
  C:0EE4H         LINE#         491
  C:0EF3H         LINE#         492
  C:0EF6H         LINE#         493
  C:0EF6H         LINE#         494
  C:0EF8H         LINE#         495
  C:0F01H         LINE#         496
  C:0F11H         LINE#         498
  C:0F20H         LINE#         499
  C:0F35H         LINE#         500
  C:0F35H         LINE#         501
  C:0F43H         LINE#         502
  C:0F49H         LINE#         503
  C:0F49H         LINE#         504
  C:0F57H         LINE#         505
  C:0F66H         LINE#         506
  C:0F69H         LINE#         507
  C:0F69H         LINE#         508
  C:0F6BH         LINE#         509
  C:0F7BH         LINE#         511
  C:0F8AH         LINE#         512
BL51 BANKED LINKER/LOCATER V6.22.2.0                                                  04/20/2022  17:16:51  PAGE 53


  C:0F99H         LINE#         513
  C:0F9BH         LINE#         514
  C:0F9BH         LINE#         515
  C:0F9DH         LINE#         516
  C:0FADH         LINE#         517
  C:0FBDH         LINE#         518
  C:0FCCH         LINE#         520
  C:0FCEH         LINE#         521
  C:0FCEH         LINE#         522
  C:0FD0H         LINE#         523
  C:0FE0H         LINE#         524
  C:0FF0H         LINE#         525
  C:0FFFH         LINE#         527
  C:0FFFH         LINE#         528
  C:0FFFH         LINE#         529
  C:0FFFH         LINE#         530
  C:0FFFH         LINE#         531
  C:100FH         LINE#         532
  C:100FH         LINE#         533
  C:103AH         LINE#         534
  C:103AH         LINE#         535
  C:1050H         LINE#         536
  C:1056H         LINE#         537
  C:105BH         LINE#         538
  C:105DH         LINE#         539
  C:106DH         LINE#         540
  C:107DH         LINE#         541
  C:108CH         LINE#         542
  C:10B9H         LINE#         543
  C:10BBH         LINE#         544
  C:10BBH         LINE#         545
  C:10C0H         LINE#         546
  C:10C6H         LINE#         547
  C:10C8H         LINE#         548
  C:10D8H         LINE#         549
  C:10E7H         LINE#         550
  C:10F7H         LINE#         551
  C:1124H         LINE#         552
  C:1124H         LINE#         553
  C:1124H         LINE#         554
  C:1155H         LINE#         555
  C:1155H         LINE#         556
  C:1163H         LINE#         557
  C:1171H         LINE#         558
  C:117CH         LINE#         559
  C:1182H         LINE#         560
  C:1188H         LINE#         561
  C:1191H         LINE#         562
  C:1191H         LINE#         563
  C:1191H         LINE#         564
  C:11AEH         LINE#         565
  C:1240H         LINE#         566
  C:1240H         LINE#         568
  C:1252H         LINE#         569
  C:1252H         LINE#         570
  C:1252H         LINE#         572
  C:1323H         LINE#         574
BL51 BANKED LINKER/LOCATER V6.22.2.0                                                  04/20/2022  17:16:51  PAGE 54


  C:1323H         LINE#         575
  C:1331H         LINE#         576
  C:1348H         LINE#         577
  C:1351H         LINE#         578
  C:1351H         LINE#         581
  C:1351H         LINE#         583
  C:1354H         LINE#         585
  C:1354H         LINE#         588
  C:1375H         LINE#         589
  C:1375H         LINE#         590
  C:1383H         LINE#         591
  C:138DH         LINE#         592
  C:138FH         LINE#         593
  C:138FH         LINE#         594
  C:139EH         LINE#         595
  C:139EH         LINE#         596
  C:13AFH         LINE#         597
  C:13AFH         LINE#         598
  C:13BEH         LINE#         599
  C:13CEH         LINE#         600
  C:13D0H         LINE#         601
  C:13E1H         LINE#         602
  C:13E1H         LINE#         603
  C:13F1H         LINE#         604
  C:1401H         LINE#         605
  C:1403H         LINE#         607
  C:1403H         LINE#         608
  C:1413H         LINE#         609
  C:1422H         LINE#         610
  C:1422H         LINE#         611
  C:1424H         LINE#         613
  C:1424H         LINE#         614
  C:1432H         LINE#         615
  C:1442H         LINE#         616
  C:1442H         LINE#         617
  C:1450H         LINE#         618
  C:145EH         LINE#         619
  C:146EH         LINE#         621
  C:14BBH         LINE#         623
  C:14CCH         LINE#         624
  C:14D0H         LINE#         625
  C:14DCH         LINE#         626
  C:14DEH         LINE#         628
  C:14F8H         LINE#         630
  C:152DH         LINE#         631
  C:1553H         LINE#         632
  C:1555H         LINE#         633
  C:158BH         LINE#         635
  C:15A1H         LINE#         636
  C:15A1H         LINE#         637
  C:15AFH         LINE#         638
  C:15BDH         LINE#         639
  C:15CBH         LINE#         640
  C:15CBH         LINE#         641
  C:15E3H         LINE#         642
  C:15E3H         LINE#         643
  C:15F3H         LINE#         644
BL51 BANKED LINKER/LOCATER V6.22.2.0                                                  04/20/2022  17:16:51  PAGE 55


  C:1601H         LINE#         645
  C:1601H         LINE#         646
  C:1606H         LINE#         647
  C:1606H         LINE#         648
  C:1612H         LINE#         649
  C:1620H         LINE#         650
  -------         ENDPROC       ID_DECODE_OUT
  -------         PROC          _RETURN_ID_DATA
  D:006BH         SYMBOL        i
  -------         DO            
  I:00C0H         SYMBOL        ID_dat
  I:00C4H         SYMBOL        xn
  -------         ENDDO         
  C:7002H         LINE#         653
  C:7004H         LINE#         654
  C:7004H         LINE#         655
  C:700DH         LINE#         657
  C:7011H         LINE#         658
  C:7028H         LINE#         659
  C:703FH         LINE#         660
  C:7056H         LINE#         661
  C:7060H         LINE#         662
  C:7065H         LINE#         663
  -------         ENDPROC       _RETURN_ID_DATA
  -------         ENDMOD        ID_DECODE

  -------         MODULE        ML7345
  C:0000H         SYMBOL        _ICE_DUMMY_
  X:05C7H         PUBLIC        First_TX_Scan
  X:05C8H         PUBLIC        APP_TX_freq
  D:0090H         PUBLIC        P1
  D:00A0H         PUBLIC        P2
  D:00C0H         PUBLIC        XICON
  D:00B0H         PUBLIC        P3
  D:00E8H         PUBLIC        P4
  D:00F8H         PUBLIC        P5
  D:00F8H         PUBLIC        P6
  C:1621H         PUBLIC        APP_TX_PACKET
  D:00A8H         PUBLIC        IE
  C:742FH         PUBLIC        ML7345_MeasurBER_Init
  X:05C9H         PUBLIC        Receiver_vent_Cache
  C:6E47H         PUBLIC        Uart_RF_Ber_Test
  X:05CAH         PUBLIC        tx_pack_cnt
  C:7117H         PUBLIC        RF_Ber_Test
  D:00B8H         PUBLIC        IP0L
  X:05CBH         PUBLIC        Fre_429_350
  X:05D3H         PUBLIC        Fre_426_750
  X:05DBH         PUBLIC        Fre_426_075
  X:05E3H         PUBLIC        Fre_429_550
  C:61C5H         PUBLIC        ML7345d_Change_Channel
  X:05EBH         PUBLIC        Fre_429_175
  X:05F3H         PUBLIC        Freq_SetBuff
  D:00D8H         PUBLIC        CCON
  C:6413H         PUBLIC        SCAN_RECEIVE_PACKET
  C:7168H         PUBLIC        _Tx_Data_Test
  X:05FBH         PUBLIC        TX_Scan_step
  B:00E8H.0       PUBLIC        P40
BL51 BANKED LINKER/LOCATER V6.22.2.0                                                  04/20/2022  17:16:51  PAGE 56


  B:00A0H.2       PUBLIC        P22
  B:0090H.3       PUBLIC        P13
  B:00E8H.1       PUBLIC        P41
  B:00A0H.3       PUBLIC        P23
  D:0088H         PUBLIC        TCON
  B:00A0H.4       PUBLIC        P24
  B:00A0H.5       PUBLIC        P25
  B:00B0H.5       PUBLIC        P35
  B:00A0H.7       PUBLIC        P27
  C:62ECH         PUBLIC        ML7345D_Freq_Scanning
  X:05FCH         PUBLIC        rf_offset
  C:5BF6H         PUBLIC        ML7345_TRX_Del
  C:6DC8H         PUBLIC        DataReceive
  C:4D5FH         PUBLIC        ML7345D_RF_test_mode
  X:05FDH         PUBLIC        Radio_Date_Type
  X:05FEH         PUBLIC        SPI_RECEIVE_BUFF
  C:42D6H         PUBLIC        _RF_ML7345_Init
  X:0626H         PUBLIC        SPI_Receive_DataForC
  C:3E09H         PUBLIC        _TX_DataLoad_HighSpeed
  D:0098H         PUBLIC        S0CON
  D:0098H         PUBLIC        S1CON
  X:0642H         PUBLIC        Radio_Date_Type_bak
  D:00C8H         PUBLIC        T2CON
  C:609CH         PUBLIC        RX_ANALYSIS
  D:00D0H         PUBLIC        PSW
  -------         PROC          _RF_ML7345_INIT
  D:0032H         SYMBOL        freq
  D:0035H         SYMBOL        sync
  D:0036H         SYMBOL        rx_len
  C:42D6H         LINE#         44
  C:42DEH         LINE#         45
  C:42DEH         LINE#         46
  C:42E1H         LINE#         47
  C:42E1H         LINE#         48
  C:42ECH         LINE#         49
  C:42EEH         LINE#         50
  C:42EEH         LINE#         51
  C:42F0H         LINE#         52
  C:42F7H         LINE#         53
  C:42FEH         LINE#         54
  C:4305H         LINE#         55
  C:430CH         LINE#         56
  C:4313H         LINE#         57
  C:431AH         LINE#         58
  C:4321H         LINE#         59
  C:4328H         LINE#         60
  C:432FH         LINE#         61
  C:4336H         LINE#         62
  C:433DH         LINE#         63
  C:4344H         LINE#         64
  C:434BH         LINE#         65
  C:4352H         LINE#         66
  C:4359H         LINE#         67
  C:4360H         LINE#         68
  C:4367H         LINE#         69
  C:436EH         LINE#         70
  C:4375H         LINE#         71
BL51 BANKED LINKER/LOCATER V6.22.2.0                                                  04/20/2022  17:16:51  PAGE 57


  C:437CH         LINE#         72
  C:4383H         LINE#         73
  C:438AH         LINE#         74
  C:4391H         LINE#         75
  C:4398H         LINE#         76
  C:439FH         LINE#         77
  C:43A6H         LINE#         78
  C:43ADH         LINE#         80
  C:43B4H         LINE#         82
  C:43BBH         LINE#         84
  C:43C2H         LINE#         86
  C:43C9H         LINE#         87
  C:43D0H         LINE#         89
  C:43D7H         LINE#         91
  C:43DEH         LINE#         92
  C:43E5H         LINE#         93
  C:43ECH         LINE#         94
  C:43F3H         LINE#         96
  C:43FAH         LINE#         98
  C:4401H         LINE#         100
  C:4408H         LINE#         102
  C:440FH         LINE#         103
  C:4416H         LINE#         104
  C:441DH         LINE#         106
  C:4424H         LINE#         108
  C:442BH         LINE#         109
  C:4432H         LINE#         111
  C:4439H         LINE#         112
  C:4440H         LINE#         116
  C:4447H         LINE#         117
  C:444EH         LINE#         118
  C:4455H         LINE#         119
  C:445CH         LINE#         120
  C:4463H         LINE#         122
  C:446AH         LINE#         124
  C:4471H         LINE#         126
  C:4478H         LINE#         128
  C:4487H         LINE#         129
  C:449CH         LINE#         130
  C:44B1H         LINE#         131
  C:44C6H         LINE#         132
  C:44D5H         LINE#         133
  C:44EAH         LINE#         134
  C:44FFH         LINE#         135
  C:4514H         LINE#         137
  C:451BH         LINE#         138
  C:4522H         LINE#         140
  C:4529H         LINE#         141
  C:4530H         LINE#         142
  C:4537H         LINE#         143
  C:453EH         LINE#         144
  C:4545H         LINE#         145
  C:454CH         LINE#         147
  C:4553H         LINE#         148
  C:455AH         LINE#         149
  C:4561H         LINE#         153
  C:4576H         LINE#         154
BL51 BANKED LINKER/LOCATER V6.22.2.0                                                  04/20/2022  17:16:51  PAGE 58


  C:458BH         LINE#         155
  C:45A0H         LINE#         156
  C:45B5H         LINE#         157
  C:45BCH         LINE#         158
  C:45C3H         LINE#         159
  C:45CAH         LINE#         161
  C:45D1H         LINE#         162
  C:45D8H         LINE#         163
  C:45DFH         LINE#         164
  C:45E6H         LINE#         165
  C:45EDH         LINE#         167
  C:45F0H         LINE#         169
  C:45F7H         LINE#         170
  C:45FEH         LINE#         173
  C:4605H         LINE#         174
  C:460CH         LINE#         176
  C:4613H         LINE#         177
  C:461AH         LINE#         178
  C:4621H         LINE#         179
  C:4628H         LINE#         180
  C:462FH         LINE#         181
  C:4636H         LINE#         182
  C:463DH         LINE#         183
  C:4644H         LINE#         185
  C:4681H         LINE#         186
  C:4684H         LINE#         189
  C:468BH         LINE#         190
  C:4692H         LINE#         191
  C:4692H         LINE#         192
  C:469DH         LINE#         193
  C:469FH         LINE#         194
  C:469FH         LINE#         195
  C:46A1H         LINE#         196
  C:46A4H         LINE#         197
  -------         ENDPROC       _RF_ML7345_INIT
  -------         PROC          ML7345_MEASURBER_INIT
  C:742FH         LINE#         199
  C:742FH         LINE#         200
  C:742FH         LINE#         201
  C:7436H         LINE#         202
  C:743DH         LINE#         204
  C:7444H         LINE#         205
  C:744BH         LINE#         207
  C:7452H         LINE#         208
  C:7459H         LINE#         209
  C:7460H         LINE#         211
  C:7467H         LINE#         212
  C:746EH         LINE#         213
  -------         ENDPROC       ML7345_MEASURBER_INIT
  -------         PROC          DATARECEIVE
  -------         DO            
  D:0059H         SYMBOL        StateCache
  D:005AH         SYMBOL        Cache
  D:005BH         SYMBOL        X_HISbyte
  -------         ENDDO         
  C:6DC8H         LINE#         216
  C:6DC8H         LINE#         217
BL51 BANKED LINKER/LOCATER V6.22.2.0                                                  04/20/2022  17:16:51  PAGE 59


  C:6DC8H         LINE#         221
  C:6DDAH         LINE#         222
  C:6DDAH         LINE#         223
  C:6DDAH         LINE#         224
  C:6DDAH         LINE#         225
  C:6DE0H         LINE#         226
  C:6DE3H         LINE#         227
  C:6DE5H         LINE#         228
  C:6DEFH         LINE#         229
  C:6DEFH         LINE#         230
  C:6DF2H         LINE#         231
  C:6DF5H         LINE#         232
  C:6DF8H         LINE#         233
  C:6DF8H         LINE#         234
  C:6DF8H         LINE#         235
  C:6DF9H         LINE#         236
  C:6DF9H         LINE#         237
  C:6DF9H         LINE#         238
  C:6E03H         LINE#         239
  C:6E11H         LINE#         240
  C:6E1FH         LINE#         241
  C:6E22H         LINE#         242
  C:6E33H         LINE#         243
  C:6E36H         LINE#         244
  C:6E36H         LINE#         245
  C:6E37H         LINE#         246
  C:6E37H         LINE#         247
  C:6E43H         LINE#         248
  C:6E46H         LINE#         249
  C:6E46H         LINE#         250
  C:6E46H         LINE#         251
  C:6E46H         LINE#         252
  C:6E46H         LINE#         253
  -------         ENDPROC       DATARECEIVE
  -------         PROC          _TX_DATA_TEST
  D:006CH         SYMBOL        mode
  C:7168H         LINE#         257
  C:716AH         LINE#         258
  C:716AH         LINE#         259
  C:7171H         LINE#         260
  C:7186H         LINE#         261
  C:7186H         LINE#         263
  C:718FH         LINE#         266
  C:7198H         LINE#         269
  C:71A1H         LINE#         272
  C:71AAH         LINE#         275
  C:71AAH         LINE#         276
  C:71B1H         LINE#         277
  C:71B1H         LINE#         278
  C:71B1H         LINE#         279
  C:71B6H         LINE#         280
  -------         ENDPROC       _TX_DATA_TEST
  -------         PROC          RF_BER_TEST
  C:7117H         LINE#         283
  C:7117H         LINE#         284
  C:7117H         LINE#         285
  C:7128H         LINE#         286
BL51 BANKED LINKER/LOCATER V6.22.2.0                                                  04/20/2022  17:16:51  PAGE 60


  C:7128H         LINE#         287
  C:713DH         LINE#         288
  C:713FH         LINE#         289
  C:7147H         LINE#         290
  C:714FH         LINE#         291
  C:7159H         LINE#         292
  C:7159H         LINE#         293
  C:7165H         LINE#         294
  C:7167H         LINE#         295
  -------         ENDPROC       RF_BER_TEST
  -------         PROC          UART_RF_BER_TEST
  C:6E47H         LINE#         297
  C:6E47H         LINE#         298
  C:6E47H         LINE#         299
  C:6E58H         LINE#         300
  C:6E58H         LINE#         301
  C:6E71H         LINE#         302
  C:6E7EH         LINE#         304
  C:6E93H         LINE#         305
  C:6E95H         LINE#         307
  C:6E9DH         LINE#         308
  C:6EA5H         LINE#         309
  C:6EAFH         LINE#         310
  C:6EAFH         LINE#         311
  C:6EBBH         LINE#         312
  C:6EBDH         LINE#         313
  -------         ENDPROC       UART_RF_BER_TEST
  -------         PROC          APP_TX_PACKET
  -------         DO            
  X:05BEH         SYMBOL        rssi
  X:05BFH         SYMBOL        i
  X:05C0H         SYMBOL        j
  -------         ENDDO         
  C:1621H         LINE#         315
  C:1621H         LINE#         316
  C:1621H         LINE#         318
  C:162CH         LINE#         320
  C:1654H         LINE#         322
  C:1671H         LINE#         323
  C:1671H         LINE#         324
  C:167FH         LINE#         325
  C:168DH         LINE#         326
  C:168DH         LINE#         327
  C:175BH         LINE#         330
  C:175BH         LINE#         331
  C:17A4H         LINE#         333
  C:17B2H         LINE#         334
  C:17B8H         LINE#         335
  C:17BEH         LINE#         336
  C:17C8H         LINE#         337
  C:17DBH         LINE#         338
  C:17DBH         LINE#         339
  C:1816H         LINE#         340
  C:181CH         LINE#         341
  C:1822H         LINE#         342
  C:1831H         LINE#         343
  C:1833H         LINE#         344
BL51 BANKED LINKER/LOCATER V6.22.2.0                                                  04/20/2022  17:16:51  PAGE 61


  C:1845H         LINE#         345
  C:1845H         LINE#         346
  C:1853H         LINE#         347
  C:1861H         LINE#         348
  C:186FH         LINE#         349
  C:186FH         LINE#         351
  C:1875H         LINE#         352
  C:1883H         LINE#         353
  C:1891H         LINE#         355
  C:1896H         LINE#         356
  C:189CH         LINE#         357
  C:18A1H         LINE#         359
  C:18A4H         LINE#         360
  C:1983H         LINE#         366
  C:1983H         LINE#         367
  C:1991H         LINE#         368
  C:199FH         LINE#         369
  C:19C4H         LINE#         370
  C:19D6H         LINE#         371
  C:19F6H         LINE#         372
  C:1A04H         LINE#         373
  C:1A1FH         LINE#         374
  C:1A29H         LINE#         375
  C:1A61H         LINE#         376
  C:1A6FH         LINE#         377
  C:1A77H         LINE#         379
  C:1A7DH         LINE#         380
  C:1A8BH         LINE#         381
  C:1A99H         LINE#         382
  C:1A9EH         LINE#         383
  C:1AA4H         LINE#         384
  C:1AA9H         LINE#         386
  C:1AAEH         LINE#         387
  C:1AB8H         LINE#         388
  C:1AB8H         LINE#         389
  C:1AD1H         LINE#         390
  C:1AD1H         LINE#         391
  C:1AE4H         LINE#         392
  C:1AF4H         LINE#         393
  C:1AF4H         LINE#         394
  C:1B02H         LINE#         395
  C:1B02H         LINE#         396
  C:1B0EH         LINE#         397
  C:1B15H         LINE#         398
  C:1B17H         LINE#         399
  C:1B69H         LINE#         400
  C:1B6EH         LINE#         401
  C:1B75H         LINE#         402
  C:1B7CH         LINE#         403
  C:1B83H         LINE#         404
  C:1B86H         LINE#         405
  C:1B91H         LINE#         406
  C:1B98H         LINE#         407
  C:1B9EH         LINE#         408
  C:1BA1H         LINE#         409
  C:1BD2H         LINE#         410
  C:1BD2H         LINE#         411
BL51 BANKED LINKER/LOCATER V6.22.2.0                                                  04/20/2022  17:16:51  PAGE 62


  C:1BDEH         LINE#         412
  C:1BE9H         LINE#         413
  C:1BF0H         LINE#         414
  C:1BF6H         LINE#         415
  C:1BF9H         LINE#         416
  C:1C29H         LINE#         417
  C:1C29H         LINE#         418
  C:1C35H         LINE#         419
  C:1C3BH         LINE#         420
  C:1C49H         LINE#         421
  C:1C57H         LINE#         422
  C:1C5DH         LINE#         423
  C:1C5FH         LINE#         424
  C:1C6DH         LINE#         425
  C:1C79H         LINE#         426
  C:1C7EH         LINE#         427
  C:1C7EH         LINE#         428
  C:1C7EH         LINE#         429
  C:1C7EH         LINE#         430
  C:1CB6H         LINE#         431
  C:1CB6H         LINE#         432
  C:1CC4H         LINE#         433
  C:1CD2H         LINE#         434
  C:1CD3H         LINE#         435
  C:1D2AH         LINE#         436
  C:1D2AH         LINE#         437
  C:1D56H         LINE#         438
  C:1D80H         LINE#         439
  C:1D83H         LINE#         440
  C:1D8EH         LINE#         441
  C:1D95H         LINE#         442
  C:1DA9H         LINE#         443
  C:1DA9H         LINE#         444
  C:1DAEH         LINE#         445
  C:1DBAH         LINE#         446
  C:1DC8H         LINE#         447
  C:1DCAH         LINE#         448
  C:1DCAH         LINE#         449
  C:1DCAH         LINE#         450
  -------         ENDPROC       APP_TX_PACKET
  -------         PROC          ML7345D_RF_TEST_MODE
  C:4D5FH         LINE#         453
  C:4D5FH         LINE#         454
  C:4D5FH         LINE#         455
  C:4D61H         LINE#         456
  C:4D6DH         LINE#         457
  C:4D79H         LINE#         458
  C:4D7FH         LINE#         459
  C:4D7FH         LINE#         460
  C:4D8DH         LINE#         461
  C:4D8DH         LINE#         462
  C:4D90H         LINE#         463
  C:4D92H         LINE#         464
  C:4D9DH         LINE#         465
  C:4D9DH         LINE#         466
  C:4DA9H         LINE#         467
  C:4DACH         LINE#         468
BL51 BANKED LINKER/LOCATER V6.22.2.0                                                  04/20/2022  17:16:51  PAGE 63


  C:4DC4H         LINE#         469
  C:4DC4H         LINE#         470
  C:4DC7H         LINE#         471
  C:4DC7H         LINE#         472
  C:4DCAH         LINE#         473
  C:4DD1H         LINE#         475
  C:4DD7H         LINE#         476
  C:4DD9H         LINE#         478
  C:4DD9H         LINE#         479
  C:4DDCH         LINE#         480
  C:4DE4H         LINE#         482
  C:4DEAH         LINE#         483
  C:4DEAH         LINE#         484
  C:4E05H         LINE#         485
  C:4E05H         LINE#         486
  C:4E09H         LINE#         487
  C:4E17H         LINE#         488
  C:4E19H         LINE#         489
  C:4E27H         LINE#         490
  C:4E33H         LINE#         491
  C:4E3DH         LINE#         492
  C:4E48H         LINE#         493
  C:4E48H         LINE#         494
  C:4E4AH         LINE#         495
  C:4E58H         LINE#         496
  C:4E66H         LINE#         497
  C:4E7FH         LINE#         498
  C:4E7FH         LINE#         499
  C:4E8DH         LINE#         500
  C:4E92H         LINE#         501
  C:4E9DH         LINE#         502
  C:4EA2H         LINE#         503
  C:4EA2H         LINE#         504
  C:4EA4H         LINE#         506
  C:4EA4H         LINE#         507
  C:4EB0H         LINE#         508
  C:4EB0H         LINE#         509
  C:4EBAH         LINE#         510
  C:4EBCH         LINE#         511
  C:4EBCH         LINE#         512
  C:4ECAH         LINE#         513
  C:4ED8H         LINE#         514
  C:4EEBH         LINE#         515
  C:4EEBH         LINE#         516
  C:4EF9H         LINE#         517
  C:4EFEH         LINE#         518
  C:4F09H         LINE#         519
  C:4F0EH         LINE#         520
  C:4F0EH         LINE#         521
  C:4F0EH         LINE#         522
  C:4F0EH         LINE#         524
  C:4F2BH         LINE#         525
  C:4F2BH         LINE#         526
  C:4F2FH         LINE#         527
  C:4F3DH         LINE#         528
  C:4F3FH         LINE#         529
  C:4F4DH         LINE#         530
BL51 BANKED LINKER/LOCATER V6.22.2.0                                                  04/20/2022  17:16:51  PAGE 64


  C:4F5BH         LINE#         531
  C:4F69H         LINE#         532
  C:4F7DH         LINE#         533
  C:4F7DH         LINE#         534
  C:4F8BH         LINE#         535
  C:4F90H         LINE#         536
  C:4F9AH         LINE#         537
  C:4FA5H         LINE#         538
  C:4FA8H         LINE#         539
  C:4FADH         LINE#         540
  C:4FADH         LINE#         541
  C:4FBAH         LINE#         542
  C:4FBAH         LINE#         543
  C:4FC6H         LINE#         544
  C:4FC6H         LINE#         545
  C:4FD0H         LINE#         546
  C:4FD2H         LINE#         547
  C:4FD2H         LINE#         549
  C:4FD2H         LINE#         550
  C:4FDFH         LINE#         551
  C:4FDFH         LINE#         552
  C:4FE2H         LINE#         553
  C:4FE2H         LINE#         554
  C:4FE2H         LINE#         555
  C:4FE2H         LINE#         556
  C:4FE5H         LINE#         557
  C:4FE8H         LINE#         558
  C:4FF8H         LINE#         559
  C:4FF8H         LINE#         561
  C:4FFDH         LINE#         562
  C:500BH         LINE#         563
  C:500BH         LINE#         564
  C:5015H         LINE#         566
  C:5021H         LINE#         567
  C:502DH         LINE#         568
  C:5030H         LINE#         569
  C:5033H         LINE#         570
  C:5041H         LINE#         571
  C:5049H         LINE#         572
  C:504BH         LINE#         573
  C:504DH         LINE#         574
  C:505BH         LINE#         576
  C:5065H         LINE#         577
  C:5073H         LINE#         578
  -------         ENDPROC       ML7345D_RF_TEST_MODE
  -------         PROC          ML7345D_CHANGE_CHANNEL
  C:61C5H         LINE#         580
  C:61C5H         LINE#         581
  C:61C5H         LINE#         582
  C:6204H         LINE#         583
  C:6204H         LINE#         584
  C:620EH         LINE#         585
  C:6214H         LINE#         586
  C:6218H         LINE#         587
  C:6226H         LINE#         588
  C:6227H         LINE#         590
  C:6227H         LINE#         591
BL51 BANKED LINKER/LOCATER V6.22.2.0                                                  04/20/2022  17:16:51  PAGE 65


  C:623FH         LINE#         592
  C:623FH         LINE#         593
  C:623FH         LINE#         594
  C:6245H         LINE#         595
  C:624FH         LINE#         596
  C:625DH         LINE#         597
  C:627EH         LINE#         598
  C:6282H         LINE#         599
  C:6283H         LINE#         601
  C:6283H         LINE#         602
  C:6289H         LINE#         603
  C:6293H         LINE#         604
  C:62A1H         LINE#         605
  C:62A5H         LINE#         606
  C:62A6H         LINE#         608
  C:62A6H         LINE#         609
  C:62ACH         LINE#         610
  C:62B6H         LINE#         611
  C:62C4H         LINE#         612
  C:62C8H         LINE#         613
  C:62C9H         LINE#         615
  C:62C9H         LINE#         616
  C:62CFH         LINE#         617
  C:62D9H         LINE#         618
  C:62E7H         LINE#         619
  C:62EBH         LINE#         620
  C:62EBH         LINE#         622
  C:62EBH         LINE#         623
  C:62EBH         LINE#         624
  C:62EBH         LINE#         625
  C:62EBH         LINE#         626
  -------         ENDPROC       ML7345D_CHANGE_CHANNEL
  -------         PROC          ML7345D_FREQ_SCANNING
  C:62ECH         LINE#         628
  C:62ECH         LINE#         629
  C:62ECH         LINE#         630
  C:62FAH         LINE#         631
  C:62FAH         LINE#         632
  C:6305H         LINE#         633
  C:6308H         LINE#         634
  C:6317H         LINE#         635
  C:6317H         LINE#         636
  C:6321H         LINE#         637
  C:634DH         LINE#         638
  C:6379H         LINE#         639
  C:63A3H         LINE#         640
  C:63A6H         LINE#         641
  C:63A6H         LINE#         642
  C:63ABH         LINE#         643
  C:63AFH         LINE#         645
  C:63BCH         LINE#         646
  C:63C5H         LINE#         647
  C:63D7H         LINE#         648
  C:63DEH         LINE#         649
  C:63EAH         LINE#         650
  C:63F6H         LINE#         651
  C:63FBH         LINE#         652
BL51 BANKED LINKER/LOCATER V6.22.2.0                                                  04/20/2022  17:16:51  PAGE 66


  C:6405H         LINE#         654
  C:6412H         LINE#         655
  -------         ENDPROC       ML7345D_FREQ_SCANNING
  -------         PROC          ML7345_TRX_DEL
  -------         DO            
  I:00DCH         SYMBOL        reg
  -------         ENDDO         
  C:5BF6H         LINE#         658
  C:5BF6H         LINE#         659
  C:5BF6H         LINE#         660
  C:5BFAH         LINE#         661
  C:5C15H         LINE#         663
  C:5C24H         LINE#         664
  C:5C24H         LINE#         665
  C:5C2BH         LINE#         666
  C:5C37H         LINE#         667
  C:5C66H         LINE#         668
  C:5C66H         LINE#         669
  C:5C74H         LINE#         670
  C:5C79H         LINE#         671
  C:5C95H         LINE#         672
  C:5C95H         LINE#         673
  C:5C9FH         LINE#         674
  C:5CB2H         LINE#         675
  C:5CC0H         LINE#         676
  C:5CC2H         LINE#         677
  C:5CF7H         LINE#         678
  C:5D2AH         LINE#         679
  C:5D2DH         LINE#         680
  C:5D32H         LINE#         681
  C:5D36H         LINE#         682
  C:5D36H         LINE#         683
  C:5D42H         LINE#         684
  C:5D49H         LINE#         685
  C:5D49H         LINE#         687
  C:5D55H         LINE#         688
  C:5D55H         LINE#         689
  C:5D6CH         LINE#         690
  C:5D78H         LINE#         691
  C:5D7FH         LINE#         693
  C:5D7FH         LINE#         695
  C:5D88H         LINE#         696
  C:5DA4H         LINE#         697
  C:5DA4H         LINE#         698
  C:5DB0H         LINE#         699
  C:5DB6H         LINE#         700
  C:5DBBH         LINE#         701
  C:5DBBH         LINE#         702
  -------         ENDPROC       ML7345_TRX_DEL
  -------         PROC          RX_ANALYSIS
  -------         DO            
  X:05C1H         SYMBOL        i
  -------         ENDDO         
  C:609CH         LINE#         704
  C:609CH         LINE#         705
  C:609CH         LINE#         707
  C:60B6H         LINE#         708
BL51 BANKED LINKER/LOCATER V6.22.2.0                                                  04/20/2022  17:16:51  PAGE 67


  C:60B6H         LINE#         712
  C:619BH         LINE#         713
  C:61A4H         LINE#         714
  C:61B3H         LINE#         715
  C:61B3H         LINE#         716
  C:61C1H         LINE#         717
  C:61C4H         LINE#         718
  C:61C4H         LINE#         719
  -------         ENDPROC       RX_ANALYSIS
  -------         PROC          SCAN_RECEIVE_PACKET
  -------         DO            
  X:05C2H         SYMBOL        Cache
  -------         ENDDO         
  C:6413H         LINE#         721
  C:6413H         LINE#         722
  C:6413H         LINE#         724
  C:641EH         LINE#         725
  C:641EH         LINE#         726
  C:642AH         LINE#         727
  C:6446H         LINE#         728
  C:6446H         LINE#         729
  C:6456H         LINE#         730
  C:6461H         LINE#         731
  C:6463H         LINE#         732
  C:646EH         LINE#         733
  C:6473H         LINE#         734
  C:6476H         LINE#         735
  C:6482H         LINE#         737
  C:6487H         LINE#         738
  C:6496H         LINE#         739
  C:64C4H         LINE#         740
  C:64CAH         LINE#         741
  C:64EEH         LINE#         742
  C:64F5H         LINE#         743
  C:64FCH         LINE#         744
  C:6503H         LINE#         745
  C:6508H         LINE#         746
  C:650CH         LINE#         747
  C:6518H         LINE#         748
  C:651FH         LINE#         749
  C:651FH         LINE#         750
  -------         ENDPROC       SCAN_RECEIVE_PACKET
  -------         PROC          _TX_DATALOAD_HIGHSPEED
  D:0008H         SYMBOL        IDCache
  D:000CH         SYMBOL        CtrCmd
  D:0015H         SYMBOL        Packet
  -------         DO            
  X:05C4H         SYMBOL        i
  X:05C5H         SYMBOL        CRCTemp
  -------         ENDDO         
  C:3E09H         LINE#         792
  C:3E11H         LINE#         793
  C:3E11H         LINE#         795
  C:3E19H         LINE#         797
  C:3E6AH         LINE#         798
  C:3E81H         LINE#         799
  C:3EA5H         LINE#         801
BL51 BANKED LINKER/LOCATER V6.22.2.0                                                  04/20/2022  17:16:51  PAGE 68


  C:3EBFH         LINE#         802
  C:3EBFH         LINE#         803
  C:3EE4H         LINE#         804
  C:3F40H         LINE#         805
  C:3F49H         LINE#         806
  C:3F61H         LINE#         807
  C:3F61H         LINE#         808
  C:3F86H         LINE#         809
  C:3FCAH         LINE#         810
  C:3FD3H         LINE#         811
  C:3FD6H         LINE#         812
  C:3FEEH         LINE#         813
  C:3FEEH         LINE#         814
  C:4013H         LINE#         815
  C:4061H         LINE#         816
  C:406AH         LINE#         817
  C:4082H         LINE#         818
  C:4082H         LINE#         819
  C:40A7H         LINE#         820
  C:40F5H         LINE#         821
  C:40FEH         LINE#         822
  C:4101H         LINE#         823
  C:4119H         LINE#         824
  C:4119H         LINE#         825
  C:413EH         LINE#         826
  C:418CH         LINE#         827
  C:4195H         LINE#         828
  C:41ADH         LINE#         829
  C:41ADH         LINE#         830
  C:41D2H         LINE#         831
  C:4220H         LINE#         832
  C:4229H         LINE#         833
  C:422CH         LINE#         834
  C:4247H         LINE#         835
  C:4247H         LINE#         836
  C:426CH         LINE#         837
  C:42CCH         LINE#         838
  C:42D5H         LINE#         839
  -------         ENDPROC       _TX_DATALOAD_HIGHSPEED
  -------         ENDMOD        ML7345

  -------         MODULE        ML7345_HAL
  C:0000H         SYMBOL        _ICE_DUMMY_
  C:6AA8H         PUBLIC        ML7345_DataRate_Set_4_8k
  D:0090H         PUBLIC        P1
  D:00A0H         PUBLIC        P2
  D:00C0H         PUBLIC        XICON
  D:00B0H         PUBLIC        P3
  D:00E8H         PUBLIC        P4
  D:00F8H         PUBLIC        P5
  D:00F8H         PUBLIC        P6
  D:00A8H         PUBLIC        IE
  C:746FH         PUBLIC        _ML7345_AutoTx_Data
  C:5DBCH         PUBLIC        _ML7345_Frequency_Set
  D:00B8H         PUBLIC        IP0L
  C:681CH         PUBLIC        _ML7345_SetAndGet_State
  C:7525H         PUBLIC        _ML7345_StateFlag_Clear
BL51 BANKED LINKER/LOCATER V6.22.2.0                                                  04/20/2022  17:16:51  PAGE 69


  D:00D8H         PUBLIC        CCON
  C:768CH         PUBLIC        _ML7345_AutoStateTransition_Set
  X:06E4H         PUBLIC        timeout_cnt
  B:00A0H.2       PUBLIC        P22
  C:77E0H         PUBLIC        ML7345_AllStateFlag_Clear
  B:00A0H.3       PUBLIC        P23
  D:0088H         PUBLIC        TCON
  B:00B0H.4       PUBLIC        P34
  C:5074H         PUBLIC        _ML7345_Frequency_Calcul
  C:7834H         PUBLIC        RF_SyncWord_DONE
  C:73AEH         PUBLIC        WaitStatus_Complete
  C:75FAH         PUBLIC        SetReg_Rssi
  C:787AH         PUBLIC        ML7345_GPIO0RxDoneInt_Enable
  C:7864H         PUBLIC        ML7345_GPIO0TxDoneInt_Enable
  D:0098H         PUBLIC        S0CON
  D:0098H         PUBLIC        S1CON
  D:00C8H         PUBLIC        T2CON
  C:78EAH         PUBLIC        ML7345_RESETN_SET
  C:6B6DH         PUBLIC        ML7345_DataRate_Set_1_2k
  C:765CH         PUBLIC        _ML7345_ReadRx_Pack
  D:00D0H         PUBLIC        PSW
  -------         PROC          _ML7345_AUTOSTATETRANSITION_SET
  D:006DH         SYMBOL        sta
  C:768CH         LINE#         10
  C:768EH         LINE#         11
  C:768EH         LINE#         12
  C:7695H         LINE#         13
  C:76B3H         LINE#         14
  C:76BAH         LINE#         15
  -------         ENDPROC       _ML7345_AUTOSTATETRANSITION_SET
  -------         PROC          _ML7345_SETANDGET_STATE
  D:006EH         SYMBOL        sta
  -------         DO            
  X:06D8H         SYMBOL        status
  -------         ENDDO         
  C:681CH         LINE#         31
  C:681EH         LINE#         32
  C:681EH         LINE#         33
  C:6823H         LINE#         35
  C:682AH         LINE#         36
  C:6839H         LINE#         37
  C:6846H         LINE#         38
  C:6846H         LINE#         39
  C:6871H         LINE#         40
  C:6871H         LINE#         41
  C:6878H         LINE#         42
  C:6880H         LINE#         43
  C:6895H         LINE#         44
  C:6895H         LINE#         45
  C:68ACH         LINE#         46
  C:68AFH         LINE#         47
  C:68DBH         LINE#         48
  C:68E9H         LINE#         49
  C:68ECH         LINE#         50
  C:68F3H         LINE#         51
  C:68F6H         LINE#         52
  C:68F6H         LINE#         53
BL51 BANKED LINKER/LOCATER V6.22.2.0                                                  04/20/2022  17:16:51  PAGE 70


  C:6905H         LINE#         54
  C:6905H         LINE#         55
  C:6905H         LINE#         56
  C:690AH         LINE#         57
  -------         ENDPROC       _ML7345_SETANDGET_STATE
  -------         PROC          WAITSTATUS_COMPLETE
  -------         DO            
  X:06D9H         SYMBOL        count
  -------         ENDDO         
  C:73AEH         LINE#         60
  C:73AEH         LINE#         61
  C:73AEH         LINE#         62
  C:73B6H         LINE#         63
  C:73BDH         LINE#         64
  C:73BDH         LINE#         65
  C:73BDH         LINE#         66
  C:73C6H         LINE#         67
  C:73C6H         LINE#         68
  C:73CDH         LINE#         69
  C:73D0H         LINE#         70
  C:73D0H         LINE#         71
  C:73E9H         LINE#         72
  C:73ECH         LINE#         73
  C:73EEH         LINE#         74
  -------         ENDPROC       WAITSTATUS_COMPLETE
  -------         PROC          _ML7345_STATEFLAG_CLEAR
  D:006FH         SYMBOL        sta
  C:7525H         LINE#         81
  C:7527H         LINE#         82
  C:7527H         LINE#         83
  C:752EH         LINE#         84
  C:7538H         LINE#         85
  C:7538H         LINE#         86
  C:753FH         LINE#         87
  C:7546H         LINE#         88
  C:7547H         LINE#         89
  C:754FH         LINE#         90
  C:754FH         LINE#         91
  C:7556H         LINE#         92
  C:755DH         LINE#         93
  C:755DH         LINE#         94
  -------         ENDPROC       _ML7345_STATEFLAG_CLEAR
  -------         PROC          ML7345_ALLSTATEFLAG_CLEAR
  C:77E0H         LINE#         101
  C:77E0H         LINE#         102
  C:77E0H         LINE#         103
  C:77E7H         LINE#         104
  C:77EEH         LINE#         105
  C:77F5H         LINE#         106
  C:77FCH         LINE#         107
  -------         ENDPROC       ML7345_ALLSTATEFLAG_CLEAR
  -------         PROC          ML7345_DATARATE_SET_4_8K
  C:6AA8H         LINE#         115
  C:6AA8H         LINE#         116
  C:6AA8H         LINE#         117
  C:6AAFH         LINE#         118
  C:6AB6H         LINE#         119
BL51 BANKED LINKER/LOCATER V6.22.2.0                                                  04/20/2022  17:16:51  PAGE 71


  C:6ABDH         LINE#         120
  C:6AC4H         LINE#         121
  C:6ACBH         LINE#         122
  C:6AD2H         LINE#         123
  C:6AD9H         LINE#         124
  C:6AE0H         LINE#         125
  C:6AE7H         LINE#         126
  C:6AEEH         LINE#         127
  C:6AF5H         LINE#         128
  C:6AFCH         LINE#         129
  C:6B03H         LINE#         130
  C:6B0AH         LINE#         131
  C:6B11H         LINE#         132
  C:6B18H         LINE#         133
  C:6B1FH         LINE#         134
  C:6B26H         LINE#         135
  C:6B2DH         LINE#         136
  C:6B34H         LINE#         137
  C:6B3BH         LINE#         138
  C:6B42H         LINE#         139
  C:6B49H         LINE#         140
  C:6B50H         LINE#         141
  C:6B57H         LINE#         142
  C:6B5EH         LINE#         143
  C:6B65H         LINE#         144
  C:6B6CH         LINE#         145
  -------         ENDPROC       ML7345_DATARATE_SET_4_8K
  -------         PROC          ML7345_DATARATE_SET_1_2K
  C:6B6DH         LINE#         147
  C:6B6DH         LINE#         148
  C:6B6DH         LINE#         149
  C:6B74H         LINE#         150
  C:6B7BH         LINE#         151
  C:6B82H         LINE#         152
  C:6B89H         LINE#         153
  C:6B90H         LINE#         154
  C:6B97H         LINE#         155
  C:6B9EH         LINE#         156
  C:6BA5H         LINE#         157
  C:6BACH         LINE#         158
  C:6BB3H         LINE#         159
  C:6BBAH         LINE#         160
  C:6BC1H         LINE#         161
  C:6BC8H         LINE#         162
  C:6BCFH         LINE#         163
  C:6BD6H         LINE#         164
  C:6BDDH         LINE#         165
  C:6BE4H         LINE#         166
  C:6BEBH         LINE#         167
  C:6BF2H         LINE#         168
  C:6BF9H         LINE#         169
  C:6C00H         LINE#         170
  C:6C07H         LINE#         171
  C:6C0EH         LINE#         172
  C:6C15H         LINE#         173
  C:6C1CH         LINE#         174
  C:6C23H         LINE#         175
BL51 BANKED LINKER/LOCATER V6.22.2.0                                                  04/20/2022  17:16:51  PAGE 72


  -------         ENDPROC       ML7345_DATARATE_SET_1_2K
  -------         PROC          ML7345_RESETN_SET
  C:78EAH         LINE#         283
  C:78EAH         LINE#         284
  C:78EAH         LINE#         285
  C:78ECH         LINE#         286
  C:78F1H         LINE#         287
  C:78F3H         LINE#         288
  -------         ENDPROC       ML7345_RESETN_SET
  -------         PROC          _ML7345_FREQUENCY_SET
  D:0047H         SYMBOL        freq
  D:004AH         SYMBOL        radio_type
  C:5DBCH         LINE#         327
  C:5DC4H         LINE#         328
  C:5DC4H         LINE#         329
  C:5DD0H         LINE#         330
  C:5DDDH         LINE#         331
  C:5DE2H         LINE#         332
  C:5DE9H         LINE#         333
  C:5DF8H         LINE#         334
  C:5E0DH         LINE#         335
  C:5E22H         LINE#         336
  C:5E37H         LINE#         337
  C:5E46H         LINE#         338
  C:5E5BH         LINE#         339
  C:5E70H         LINE#         340
  C:5E85H         LINE#         342
  C:5E9AH         LINE#         343
  C:5EAFH         LINE#         344
  C:5EC4H         LINE#         345
  C:5ED9H         LINE#         347
  C:5EE0H         LINE#         348
  C:5EE7H         LINE#         349
  C:5EEEH         LINE#         351
  C:5EFDH         LINE#         352
  C:5F0AH         LINE#         354
  C:5F11H         LINE#         355
  C:5F11H         LINE#         356
  C:5F27H         LINE#         357
  C:5F32H         LINE#         358
  C:5F34H         LINE#         359
  C:5F34H         LINE#         360
  C:5F36H         LINE#         361
  C:5F3EH         LINE#         362
  C:5F45H         LINE#         363
  C:5F51H         LINE#         364
  -------         ENDPROC       _ML7345_FREQUENCY_SET
  -------         PROC          ML7345_GPIO0TXDONEINT_ENABLE
  C:7864H         LINE#         394
  C:7864H         LINE#         395
  C:7864H         LINE#         397
  C:786BH         LINE#         398
  C:7872H         LINE#         399
  C:7879H         LINE#         400
  -------         ENDPROC       ML7345_GPIO0TXDONEINT_ENABLE
  -------         PROC          ML7345_GPIO0RXDONEINT_ENABLE
  C:787AH         LINE#         401
BL51 BANKED LINKER/LOCATER V6.22.2.0                                                  04/20/2022  17:16:51  PAGE 73


  C:787AH         LINE#         402
  C:787AH         LINE#         403
  C:7881H         LINE#         405
  C:7888H         LINE#         406
  C:788FH         LINE#         407
  -------         ENDPROC       ML7345_GPIO0RXDONEINT_ENABLE
  -------         PROC          _ML7345_READRX_PACK
  D:004BH         SYMBOL        pbuf
  D:004EH         SYMBOL        len
  C:765CH         LINE#         543
  C:7664H         LINE#         544
  C:7664H         LINE#         545
  C:7676H         LINE#         546
  C:767DH         LINE#         547
  C:768BH         LINE#         548
  -------         ENDPROC       _ML7345_READRX_PACK
  -------         PROC          _ML7345_AUTOTX_DATA
  D:004FH         SYMBOL        pbuf
  D:0052H         SYMBOL        len
  C:746FH         LINE#         555
  C:7477H         LINE#         556
  C:7477H         LINE#         557
  C:7489H         LINE#         558
  C:748DH         LINE#         559
  C:7494H         LINE#         560
  C:749BH         LINE#         561
  C:74A0H         LINE#         562
  C:74AEH         LINE#         563
  -------         ENDPROC       _ML7345_AUTOTX_DATA
  -------         PROC          RF_SYNCWORD_DONE
  -------         DO            
  I:00DDH         SYMBOL        sync
  -------         ENDDO         
  C:7834H         LINE#         565
  C:7834H         LINE#         566
  C:7834H         LINE#         567
  C:7838H         LINE#         568
  C:783FH         LINE#         569
  C:7848H         LINE#         570
  C:784CH         LINE#         571
  -------         ENDPROC       RF_SYNCWORD_DONE
  -------         PROC          _ML7345_FREQUENCY_CALCUL
  D:0021H         SYMBOL        Freq
  D:0025H         SYMBOL        pbuf
  -------         DO            
  X:06DBH         SYMBOL        integer
  X:06DCH         SYMBOL        f_dec
  X:06E0H         SYMBOL        cal_val
  -------         ENDDO         
  C:5074H         LINE#         573
  C:5082H         LINE#         574
  C:5082H         LINE#         575
  C:5087H         LINE#         576
  C:5091H         LINE#         577
  C:509BH         LINE#         578
  C:50B3H         LINE#         579
  C:50F4H         LINE#         580
BL51 BANKED LINKER/LOCATER V6.22.2.0                                                  04/20/2022  17:16:51  PAGE 74


  C:5116H         LINE#         581
  C:5125H         LINE#         582
  C:5158H         LINE#         583
  C:518BH         LINE#         584
  C:51B9H         LINE#         586
  C:51D1H         LINE#         587
  C:51E9H         LINE#         588
  C:522AH         LINE#         589
  C:524CH         LINE#         590
  C:5261H         LINE#         591
  C:5294H         LINE#         592
  C:52C7H         LINE#         593
  C:52F5H         LINE#         594
  -------         ENDPROC       _ML7345_FREQUENCY_CALCUL
  -------         PROC          SETREG_RSSI
  C:75FAH         LINE#         596
  C:75FAH         LINE#         597
  C:75FAH         LINE#         598
  C:7601H         LINE#         599
  C:7608H         LINE#         600
  C:760FH         LINE#         601
  C:7616H         LINE#         602
  C:761DH         LINE#         603
  C:7624H         LINE#         604
  C:762BH         LINE#         605
  -------         ENDPROC       SETREG_RSSI
  -------         ENDMOD        ML7345_HAL

  -------         MODULE        ?C?FPADD
  C:2577H         PUBLIC        ?C?FPADD
  C:2573H         PUBLIC        ?C?FPSUB
  -------         ENDMOD        ?C?FPADD

  -------         MODULE        ?C?FPMUL
  C:2668H         PUBLIC        ?C?FPMUL
  -------         ENDMOD        ?C?FPMUL

  -------         MODULE        ?C?FPDIV
  C:2771H         PUBLIC        ?C?FPDIV
  -------         ENDMOD        ?C?FPDIV

  -------         MODULE        ?C?FCAST
  C:2818H         PUBLIC        ?C?FCASTC
  C:2813H         PUBLIC        ?C?FCASTI
  C:280EH         PUBLIC        ?C?FCASTL
  -------         ENDMOD        ?C?FCAST

  -------         MODULE        ?C?CASTF
  C:284CH         PUBLIC        ?C?CASTF
  -------         ENDMOD        ?C?CASTF

  -------         MODULE        ?C?COPY
  C:299DH         PUBLIC        ?C?COPY
  -------         ENDMOD        ?C?COPY

  -------         MODULE        ?C?CLDPTR
  C:29C3H         PUBLIC        ?C?CLDPTR
BL51 BANKED LINKER/LOCATER V6.22.2.0                                                  04/20/2022  17:16:51  PAGE 75


  -------         ENDMOD        ?C?CLDPTR

  -------         MODULE        ?C?CLDOPTR
  C:29DCH         PUBLIC        ?C?CLDOPTR
  -------         ENDMOD        ?C?CLDOPTR

  -------         MODULE        ?C?CSTPTR
  C:2A09H         PUBLIC        ?C?CSTPTR
  -------         ENDMOD        ?C?CSTPTR

  -------         MODULE        ?C?CSTOPTR
  C:2A1BH         PUBLIC        ?C?CSTOPTR
  -------         ENDMOD        ?C?CSTOPTR

  -------         MODULE        ?C?IMUL
  C:2A3DH         PUBLIC        ?C?IMUL
  -------         ENDMOD        ?C?IMUL

  -------         MODULE        ?C?UIDIV
  C:2A4FH         PUBLIC        ?C?UIDIV
  -------         ENDMOD        ?C?UIDIV

  -------         MODULE        ?C?SIDIV
  C:2AA4H         PUBLIC        ?C?SIDIV
  -------         ENDMOD        ?C?SIDIV

  -------         MODULE        ?C?ILDIX
  C:2ADAH         PUBLIC        ?C?ILDIX
  -------         ENDMOD        ?C?ILDIX

  -------         MODULE        ?C?LMUL
  C:2AF0H         PUBLIC        ?C?LMUL
  -------         ENDMOD        ?C?LMUL

  -------         MODULE        ?C?ULDIV
  C:2B7BH         PUBLIC        ?C?ULDIV
  -------         ENDMOD        ?C?ULDIV

  -------         MODULE        ?C?SLDIV
  C:7328H         PUBLIC        ?C?SLDIV
  -------         ENDMOD        ?C?SLDIV

  -------         MODULE        ?C?LNEG
  C:2C0DH         PUBLIC        ?C?LNEG
  -------         ENDMOD        ?C?LNEG

  -------         MODULE        ?C?ULCMP
  C:2C1BH         PUBLIC        ?C?ULCMP
  -------         ENDMOD        ?C?ULCMP

  -------         MODULE        ?C?ULSHR
  C:2C2CH         PUBLIC        ?C?ULSHR
  -------         ENDMOD        ?C?ULSHR

  -------         MODULE        ?C?LSHL
  C:2C3FH         PUBLIC        ?C?LSHL
  -------         ENDMOD        ?C?LSHL
BL51 BANKED LINKER/LOCATER V6.22.2.0                                                  04/20/2022  17:16:51  PAGE 76



  -------         MODULE        ?C?LLDIDATA
  C:2C52H         PUBLIC        ?C?LLDIDATA
  -------         ENDMOD        ?C?LLDIDATA

  -------         MODULE        ?C?LLDIDATA0
  C:2C5EH         PUBLIC        ?C?LLDIDATA0
  -------         ENDMOD        ?C?LLDIDATA0

  -------         MODULE        ?C?LSTIDATA
  C:2C6BH         PUBLIC        ?C?LSTIDATA
  -------         ENDMOD        ?C?LSTIDATA

  -------         MODULE        ?C?LSTXDATA
  C:2C77H         PUBLIC        ?C?LSTXDATA
  -------         ENDMOD        ?C?LSTXDATA

  -------         MODULE        ?C?LSTKIDATA
  C:2C83H         PUBLIC        ?C?LSTKIDATA
  -------         ENDMOD        ?C?LSTKIDATA

  -------         MODULE        ?C?LSTKXDATA
  C:2C9CH         PUBLIC        ?C?LSTKXDATA
  -------         ENDMOD        ?C?LSTKXDATA

  -------         MODULE        ?C?OFFXADD
  C:2CCDH         PUBLIC        ?C?OFFXADD
  -------         ENDMOD        ?C?OFFXADD

  -------         MODULE        ?C?CCASE
  C:2CD9H         PUBLIC        ?C?CCASE
  -------         ENDMOD        ?C?CCASE

Program Size: data=222.7 xdata=1769 code=30969
LINK/LOCATE RUN COMPLETE.  0 WARNING(S),  0 ERROR(S)
